
bomb:     file format elf32-i386


Disassembly of section .init:

080486f4 <_init>:
 80486f4:	53                   	push   %ebx
 80486f5:	83 ec 08             	sub    $0x8,%esp
 80486f8:	e8 13 02 00 00       	call   8048910 <__x86.get_pc_thunk.bx>
 80486fd:	81 c3 03 39 00 00    	add    $0x3903,%ebx
 8048703:	8b 83 fc ff ff ff    	mov    -0x4(%ebx),%eax
 8048709:	85 c0                	test   %eax,%eax
 804870b:	74 05                	je     8048712 <_init+0x1e>
 804870d:	e8 be 01 00 00       	call   80488d0 <__sprintf_chk@plt+0x10>
 8048712:	83 c4 08             	add    $0x8,%esp
 8048715:	5b                   	pop    %ebx
 8048716:	c3                   	ret    

Disassembly of section .plt:

08048720 <read@plt-0x10>:
 8048720:	ff 35 04 c0 04 08    	pushl  0x804c004
 8048726:	ff 25 08 c0 04 08    	jmp    *0x804c008
 804872c:	00 00                	add    %al,(%eax)
	...

08048730 <read@plt>:
 8048730:	ff 25 0c c0 04 08    	jmp    *0x804c00c
 8048736:	68 00 00 00 00       	push   $0x0
 804873b:	e9 e0 ff ff ff       	jmp    8048720 <_init+0x2c>

08048740 <fflush@plt>:
 8048740:	ff 25 10 c0 04 08    	jmp    *0x804c010
 8048746:	68 08 00 00 00       	push   $0x8
 804874b:	e9 d0 ff ff ff       	jmp    8048720 <_init+0x2c>

08048750 <fgets@plt>:
 8048750:	ff 25 14 c0 04 08    	jmp    *0x804c014
 8048756:	68 10 00 00 00       	push   $0x10
 804875b:	e9 c0 ff ff ff       	jmp    8048720 <_init+0x2c>

08048760 <signal@plt>:
 8048760:	ff 25 18 c0 04 08    	jmp    *0x804c018
 8048766:	68 18 00 00 00       	push   $0x18
 804876b:	e9 b0 ff ff ff       	jmp    8048720 <_init+0x2c>

08048770 <sleep@plt>:
 8048770:	ff 25 1c c0 04 08    	jmp    *0x804c01c
 8048776:	68 20 00 00 00       	push   $0x20
 804877b:	e9 a0 ff ff ff       	jmp    8048720 <_init+0x2c>

08048780 <alarm@plt>:
 8048780:	ff 25 20 c0 04 08    	jmp    *0x804c020
 8048786:	68 28 00 00 00       	push   $0x28
 804878b:	e9 90 ff ff ff       	jmp    8048720 <_init+0x2c>

08048790 <__stack_chk_fail@plt>:
 8048790:	ff 25 24 c0 04 08    	jmp    *0x804c024
 8048796:	68 30 00 00 00       	push   $0x30
 804879b:	e9 80 ff ff ff       	jmp    8048720 <_init+0x2c>

080487a0 <strcpy@plt>:
 80487a0:	ff 25 28 c0 04 08    	jmp    *0x804c028
 80487a6:	68 38 00 00 00       	push   $0x38
 80487ab:	e9 70 ff ff ff       	jmp    8048720 <_init+0x2c>

080487b0 <getenv@plt>:
 80487b0:	ff 25 2c c0 04 08    	jmp    *0x804c02c
 80487b6:	68 40 00 00 00       	push   $0x40
 80487bb:	e9 60 ff ff ff       	jmp    8048720 <_init+0x2c>

080487c0 <puts@plt>:
 80487c0:	ff 25 30 c0 04 08    	jmp    *0x804c030
 80487c6:	68 48 00 00 00       	push   $0x48
 80487cb:	e9 50 ff ff ff       	jmp    8048720 <_init+0x2c>

080487d0 <__memmove_chk@plt>:
 80487d0:	ff 25 34 c0 04 08    	jmp    *0x804c034
 80487d6:	68 50 00 00 00       	push   $0x50
 80487db:	e9 40 ff ff ff       	jmp    8048720 <_init+0x2c>

080487e0 <exit@plt>:
 80487e0:	ff 25 38 c0 04 08    	jmp    *0x804c038
 80487e6:	68 58 00 00 00       	push   $0x58
 80487eb:	e9 30 ff ff ff       	jmp    8048720 <_init+0x2c>

080487f0 <__libc_start_main@plt>:
 80487f0:	ff 25 3c c0 04 08    	jmp    *0x804c03c
 80487f6:	68 60 00 00 00       	push   $0x60
 80487fb:	e9 20 ff ff ff       	jmp    8048720 <_init+0x2c>

08048800 <write@plt>:
 8048800:	ff 25 40 c0 04 08    	jmp    *0x804c040
 8048806:	68 68 00 00 00       	push   $0x68
 804880b:	e9 10 ff ff ff       	jmp    8048720 <_init+0x2c>

08048810 <__isoc99_sscanf@plt>:
 8048810:	ff 25 44 c0 04 08    	jmp    *0x804c044
 8048816:	68 70 00 00 00       	push   $0x70
 804881b:	e9 00 ff ff ff       	jmp    8048720 <_init+0x2c>

08048820 <fopen@plt>:
 8048820:	ff 25 48 c0 04 08    	jmp    *0x804c048
 8048826:	68 78 00 00 00       	push   $0x78
 804882b:	e9 f0 fe ff ff       	jmp    8048720 <_init+0x2c>

08048830 <__errno_location@plt>:
 8048830:	ff 25 4c c0 04 08    	jmp    *0x804c04c
 8048836:	68 80 00 00 00       	push   $0x80
 804883b:	e9 e0 fe ff ff       	jmp    8048720 <_init+0x2c>

08048840 <__printf_chk@plt>:
 8048840:	ff 25 50 c0 04 08    	jmp    *0x804c050
 8048846:	68 88 00 00 00       	push   $0x88
 804884b:	e9 d0 fe ff ff       	jmp    8048720 <_init+0x2c>

08048850 <socket@plt>:
 8048850:	ff 25 54 c0 04 08    	jmp    *0x804c054
 8048856:	68 90 00 00 00       	push   $0x90
 804885b:	e9 c0 fe ff ff       	jmp    8048720 <_init+0x2c>

08048860 <__fprintf_chk@plt>:
 8048860:	ff 25 58 c0 04 08    	jmp    *0x804c058
 8048866:	68 98 00 00 00       	push   $0x98
 804886b:	e9 b0 fe ff ff       	jmp    8048720 <_init+0x2c>

08048870 <gethostbyname@plt>:
 8048870:	ff 25 5c c0 04 08    	jmp    *0x804c05c
 8048876:	68 a0 00 00 00       	push   $0xa0
 804887b:	e9 a0 fe ff ff       	jmp    8048720 <_init+0x2c>

08048880 <strtol@plt>:
 8048880:	ff 25 60 c0 04 08    	jmp    *0x804c060
 8048886:	68 a8 00 00 00       	push   $0xa8
 804888b:	e9 90 fe ff ff       	jmp    8048720 <_init+0x2c>

08048890 <connect@plt>:
 8048890:	ff 25 64 c0 04 08    	jmp    *0x804c064
 8048896:	68 b0 00 00 00       	push   $0xb0
 804889b:	e9 80 fe ff ff       	jmp    8048720 <_init+0x2c>

080488a0 <close@plt>:
 80488a0:	ff 25 68 c0 04 08    	jmp    *0x804c068
 80488a6:	68 b8 00 00 00       	push   $0xb8
 80488ab:	e9 70 fe ff ff       	jmp    8048720 <_init+0x2c>

080488b0 <__ctype_b_loc@plt>:
 80488b0:	ff 25 6c c0 04 08    	jmp    *0x804c06c
 80488b6:	68 c0 00 00 00       	push   $0xc0
 80488bb:	e9 60 fe ff ff       	jmp    8048720 <_init+0x2c>

080488c0 <__sprintf_chk@plt>:
 80488c0:	ff 25 70 c0 04 08    	jmp    *0x804c070
 80488c6:	68 c8 00 00 00       	push   $0xc8
 80488cb:	e9 50 fe ff ff       	jmp    8048720 <_init+0x2c>

Disassembly of section .plt.got:

080488d0 <.plt.got>:
 80488d0:	ff 25 fc bf 04 08    	jmp    *0x804bffc
 80488d6:	66 90                	xchg   %ax,%ax

Disassembly of section .text:

080488e0 <_start>:
 80488e0:	31 ed                	xor    %ebp,%ebp
 80488e2:	5e                   	pop    %esi
 80488e3:	89 e1                	mov    %esp,%ecx
 80488e5:	83 e4 f0             	and    $0xfffffff0,%esp
 80488e8:	50                   	push   %eax
 80488e9:	54                   	push   %esp
 80488ea:	52                   	push   %edx
 80488eb:	68 20 9f 04 08       	push   $0x8049f20
 80488f0:	68 c0 9e 04 08       	push   $0x8049ec0
 80488f5:	51                   	push   %ecx
 80488f6:	56                   	push   %esi
 80488f7:	68 db 89 04 08       	push   $0x80489db
 80488fc:	e8 ef fe ff ff       	call   80487f0 <__libc_start_main@plt>
 8048901:	f4                   	hlt    
 8048902:	66 90                	xchg   %ax,%ax
 8048904:	66 90                	xchg   %ax,%ax
 8048906:	66 90                	xchg   %ax,%ax
 8048908:	66 90                	xchg   %ax,%ax
 804890a:	66 90                	xchg   %ax,%ax
 804890c:	66 90                	xchg   %ax,%ax
 804890e:	66 90                	xchg   %ax,%ax

08048910 <__x86.get_pc_thunk.bx>:
 8048910:	8b 1c 24             	mov    (%esp),%ebx
 8048913:	c3                   	ret    
 8048914:	66 90                	xchg   %ax,%ax
 8048916:	66 90                	xchg   %ax,%ax
 8048918:	66 90                	xchg   %ax,%ax
 804891a:	66 90                	xchg   %ax,%ax
 804891c:	66 90                	xchg   %ax,%ax
 804891e:	66 90                	xchg   %ax,%ax

08048920 <deregister_tm_clones>:
 8048920:	b8 c3 c3 04 08       	mov    $0x804c3c3,%eax
 8048925:	2d c0 c3 04 08       	sub    $0x804c3c0,%eax
 804892a:	83 f8 06             	cmp    $0x6,%eax
 804892d:	76 1a                	jbe    8048949 <deregister_tm_clones+0x29>
 804892f:	b8 00 00 00 00       	mov    $0x0,%eax
 8048934:	85 c0                	test   %eax,%eax
 8048936:	74 11                	je     8048949 <deregister_tm_clones+0x29>
 8048938:	55                   	push   %ebp
 8048939:	89 e5                	mov    %esp,%ebp
 804893b:	83 ec 14             	sub    $0x14,%esp
 804893e:	68 c0 c3 04 08       	push   $0x804c3c0
 8048943:	ff d0                	call   *%eax
 8048945:	83 c4 10             	add    $0x10,%esp
 8048948:	c9                   	leave  
 8048949:	f3 c3                	repz ret 
 804894b:	90                   	nop
 804894c:	8d 74 26 00          	lea    0x0(%esi,%eiz,1),%esi

08048950 <register_tm_clones>:
 8048950:	b8 c0 c3 04 08       	mov    $0x804c3c0,%eax
 8048955:	2d c0 c3 04 08       	sub    $0x804c3c0,%eax
 804895a:	c1 f8 02             	sar    $0x2,%eax
 804895d:	89 c2                	mov    %eax,%edx
 804895f:	c1 ea 1f             	shr    $0x1f,%edx
 8048962:	01 d0                	add    %edx,%eax
 8048964:	d1 f8                	sar    %eax
 8048966:	74 1b                	je     8048983 <register_tm_clones+0x33>
 8048968:	ba 00 00 00 00       	mov    $0x0,%edx
 804896d:	85 d2                	test   %edx,%edx
 804896f:	74 12                	je     8048983 <register_tm_clones+0x33>
 8048971:	55                   	push   %ebp
 8048972:	89 e5                	mov    %esp,%ebp
 8048974:	83 ec 10             	sub    $0x10,%esp
 8048977:	50                   	push   %eax
 8048978:	68 c0 c3 04 08       	push   $0x804c3c0
 804897d:	ff d2                	call   *%edx
 804897f:	83 c4 10             	add    $0x10,%esp
 8048982:	c9                   	leave  
 8048983:	f3 c3                	repz ret 
 8048985:	8d 74 26 00          	lea    0x0(%esi,%eiz,1),%esi
 8048989:	8d bc 27 00 00 00 00 	lea    0x0(%edi,%eiz,1),%edi

08048990 <__do_global_dtors_aux>:
 8048990:	80 3d e8 c3 04 08 00 	cmpb   $0x0,0x804c3e8
 8048997:	75 13                	jne    80489ac <__do_global_dtors_aux+0x1c>
 8048999:	55                   	push   %ebp
 804899a:	89 e5                	mov    %esp,%ebp
 804899c:	83 ec 08             	sub    $0x8,%esp
 804899f:	e8 7c ff ff ff       	call   8048920 <deregister_tm_clones>
 80489a4:	c6 05 e8 c3 04 08 01 	movb   $0x1,0x804c3e8
 80489ab:	c9                   	leave  
 80489ac:	f3 c3                	repz ret 
 80489ae:	66 90                	xchg   %ax,%ax

080489b0 <frame_dummy>:
 80489b0:	b8 10 bf 04 08       	mov    $0x804bf10,%eax
 80489b5:	8b 10                	mov    (%eax),%edx
 80489b7:	85 d2                	test   %edx,%edx
 80489b9:	75 05                	jne    80489c0 <frame_dummy+0x10>
 80489bb:	eb 93                	jmp    8048950 <register_tm_clones>
 80489bd:	8d 76 00             	lea    0x0(%esi),%esi
 80489c0:	ba 00 00 00 00       	mov    $0x0,%edx
 80489c5:	85 d2                	test   %edx,%edx
 80489c7:	74 f2                	je     80489bb <frame_dummy+0xb>
 80489c9:	55                   	push   %ebp
 80489ca:	89 e5                	mov    %esp,%ebp
 80489cc:	83 ec 14             	sub    $0x14,%esp
 80489cf:	50                   	push   %eax
 80489d0:	ff d2                	call   *%edx
 80489d2:	83 c4 10             	add    $0x10,%esp
 80489d5:	c9                   	leave  
 80489d6:	e9 75 ff ff ff       	jmp    8048950 <register_tm_clones>

080489db <main>:
 80489db:	8d 4c 24 04          	lea    0x4(%esp),%ecx
 80489df:	83 e4 f0             	and    $0xfffffff0,%esp
 80489e2:	ff 71 fc             	pushl  -0x4(%ecx)
 80489e5:	55                   	push   %ebp
 80489e6:	89 e5                	mov    %esp,%ebp
 80489e8:	53                   	push   %ebx
 80489e9:	51                   	push   %ecx
 80489ea:	8b 01                	mov    (%ecx),%eax
 80489ec:	8b 59 04             	mov    0x4(%ecx),%ebx
 80489ef:	83 f8 01             	cmp    $0x1,%eax
 80489f2:	75 0c                	jne    8048a00 <main+0x25>
 80489f4:	a1 e0 c3 04 08       	mov    0x804c3e0,%eax
 80489f9:	a3 f0 c3 04 08       	mov    %eax,0x804c3f0
 80489fe:	eb 5b                	jmp    8048a5b <main+0x80>
 8048a00:	83 f8 02             	cmp    $0x2,%eax
 8048a03:	75 39                	jne    8048a3e <main+0x63>
 8048a05:	83 ec 08             	sub    $0x8,%esp
 8048a08:	68 40 9f 04 08       	push   $0x8049f40
 8048a0d:	ff 73 04             	pushl  0x4(%ebx)
 8048a10:	e8 0b fe ff ff       	call   8048820 <fopen@plt>
 8048a15:	a3 f0 c3 04 08       	mov    %eax,0x804c3f0
 8048a1a:	83 c4 10             	add    $0x10,%esp
 8048a1d:	85 c0                	test   %eax,%eax
 8048a1f:	75 3a                	jne    8048a5b <main+0x80>
 8048a21:	ff 73 04             	pushl  0x4(%ebx)
 8048a24:	ff 33                	pushl  (%ebx)
 8048a26:	68 42 9f 04 08       	push   $0x8049f42
 8048a2b:	6a 01                	push   $0x1
 8048a2d:	e8 0e fe ff ff       	call   8048840 <__printf_chk@plt>
 8048a32:	c7 04 24 08 00 00 00 	movl   $0x8,(%esp)
 8048a39:	e8 a2 fd ff ff       	call   80487e0 <exit@plt>
 8048a3e:	83 ec 04             	sub    $0x4,%esp
 8048a41:	ff 33                	pushl  (%ebx)
 8048a43:	68 5f 9f 04 08       	push   $0x8049f5f
 8048a48:	6a 01                	push   $0x1
 8048a4a:	e8 f1 fd ff ff       	call   8048840 <__printf_chk@plt>
 8048a4f:	c7 04 24 08 00 00 00 	movl   $0x8,(%esp)
 8048a56:	e8 85 fd ff ff       	call   80487e0 <exit@plt>
 8048a5b:	e8 5d 05 00 00       	call   8048fbd <initialize_bomb>
 8048a60:	83 ec 0c             	sub    $0xc,%esp
 8048a63:	68 c4 9f 04 08       	push   $0x8049fc4
 8048a68:	e8 53 fd ff ff       	call   80487c0 <puts@plt>
 8048a6d:	c7 04 24 00 a0 04 08 	movl   $0x804a000,(%esp)
 8048a74:	e8 47 fd ff ff       	call   80487c0 <puts@plt>
 8048a79:	e8 36 07 00 00       	call   80491b4 <read_line>
 8048a7e:	89 04 24             	mov    %eax,(%esp)
 8048a81:	e8 ad 00 00 00       	call   8048b33 <phase_1>
 8048a86:	e8 22 08 00 00       	call   80492ad <phase_defused>
 8048a8b:	c7 04 24 2c a0 04 08 	movl   $0x804a02c,(%esp)
 8048a92:	e8 29 fd ff ff       	call   80487c0 <puts@plt>
 8048a97:	e8 18 07 00 00       	call   80491b4 <read_line>
 8048a9c:	89 04 24             	mov    %eax,(%esp)
 8048a9f:	e8 b0 00 00 00       	call   8048b54 <phase_2>
 8048aa4:	e8 04 08 00 00       	call   80492ad <phase_defused>
 8048aa9:	c7 04 24 79 9f 04 08 	movl   $0x8049f79,(%esp)
 8048ab0:	e8 0b fd ff ff       	call   80487c0 <puts@plt>
 8048ab5:	e8 fa 06 00 00       	call   80491b4 <read_line>
 8048aba:	89 04 24             	mov    %eax,(%esp)
 8048abd:	e8 f5 00 00 00       	call   8048bb7 <phase_3>
 8048ac2:	e8 e6 07 00 00       	call   80492ad <phase_defused>
 8048ac7:	c7 04 24 97 9f 04 08 	movl   $0x8049f97,(%esp)
 8048ace:	e8 ed fc ff ff       	call   80487c0 <puts@plt>
 8048ad3:	e8 dc 06 00 00       	call   80491b4 <read_line>
 8048ad8:	89 04 24             	mov    %eax,(%esp)
 8048adb:	e8 6d 01 00 00       	call   8048c4d <phase_4>
 8048ae0:	e8 c8 07 00 00       	call   80492ad <phase_defused>
 8048ae5:	c7 04 24 58 a0 04 08 	movl   $0x804a058,(%esp)
 8048aec:	e8 cf fc ff ff       	call   80487c0 <puts@plt>
 8048af1:	e8 be 06 00 00       	call   80491b4 <read_line>
 8048af6:	89 04 24             	mov    %eax,(%esp)
 8048af9:	e8 c4 01 00 00       	call   8048cc2 <phase_5>
 8048afe:	e8 aa 07 00 00       	call   80492ad <phase_defused>
 8048b03:	c7 04 24 a6 9f 04 08 	movl   $0x8049fa6,(%esp)
 8048b0a:	e8 b1 fc ff ff       	call   80487c0 <puts@plt>
 8048b0f:	e8 a0 06 00 00       	call   80491b4 <read_line>
 8048b14:	89 04 24             	mov    %eax,(%esp)
 8048b17:	e8 11 02 00 00       	call   8048d2d <phase_6>
 8048b1c:	e8 8c 07 00 00       	call   80492ad <phase_defused>
 8048b21:	83 c4 10             	add    $0x10,%esp
 8048b24:	b8 00 00 00 00       	mov    $0x0,%eax
 8048b29:	8d 65 f8             	lea    -0x8(%ebp),%esp
 8048b2c:	59                   	pop    %ecx
 8048b2d:	5b                   	pop    %ebx
 8048b2e:	5d                   	pop    %ebp
 8048b2f:	8d 61 fc             	lea    -0x4(%ecx),%esp
 8048b32:	c3                   	ret    

08048b33 <phase_1>:
 8048b33:	83 ec 14             	sub    $0x14,%esp
 8048b36:	68 7c a0 04 08       	push   $0x804a07c
 8048b3b:	ff 74 24 1c          	pushl  0x1c(%esp)
 8048b3f:	e8 14 04 00 00       	call   8048f58 <strings_not_equal>
 8048b44:	83 c4 10             	add    $0x10,%esp
 8048b47:	85 c0                	test   %eax,%eax
 8048b49:	74 05                	je     8048b50 <phase_1+0x1d>
 8048b4b:	e8 ec 05 00 00       	call   804913c <explode_bomb>
 8048b50:	83 c4 0c             	add    $0xc,%esp
 8048b53:	c3                   	ret    

08048b54 <phase_2>:
 8048b54:	56                   	push   %esi
 8048b55:	53                   	push   %ebx
 8048b56:	83 ec 2c             	sub    $0x2c,%esp
 8048b59:	65 a1 14 00 00 00    	mov    %gs:0x14,%eax
 8048b5f:	89 44 24 24          	mov    %eax,0x24(%esp)
 8048b63:	31 c0                	xor    %eax,%eax
 8048b65:	8d 44 24 0c          	lea    0xc(%esp),%eax
 8048b69:	50                   	push   %eax
 8048b6a:	ff 74 24 3c          	pushl  0x3c(%esp)
 8048b6e:	e8 06 06 00 00       	call   8049179 <read_six_numbers>
 8048b73:	83 c4 10             	add    $0x10,%esp
 8048b76:	83 7c 24 04 01       	cmpl   $0x1,0x4(%esp)
 8048b7b:	74 05                	je     8048b82 <phase_2+0x2e>
 8048b7d:	e8 ba 05 00 00       	call   804913c <explode_bomb>
 8048b82:	8d 5c 24 04          	lea    0x4(%esp),%ebx
 8048b86:	8d 74 24 18          	lea    0x18(%esp),%esi
 8048b8a:	8b 03                	mov    (%ebx),%eax
 8048b8c:	01 c0                	add    %eax,%eax
 8048b8e:	39 43 04             	cmp    %eax,0x4(%ebx)
 8048b91:	74 05                	je     8048b98 <phase_2+0x44>
 8048b93:	e8 a4 05 00 00       	call   804913c <explode_bomb>
 8048b98:	83 c3 04             	add    $0x4,%ebx
 8048b9b:	39 f3                	cmp    %esi,%ebx
 8048b9d:	75 eb                	jne    8048b8a <phase_2+0x36>
 8048b9f:	8b 44 24 1c          	mov    0x1c(%esp),%eax
 8048ba3:	65 33 05 14 00 00 00 	xor    %gs:0x14,%eax
 8048baa:	74 05                	je     8048bb1 <phase_2+0x5d>
 8048bac:	e8 df fb ff ff       	call   8048790 <__stack_chk_fail@plt>
 8048bb1:	83 c4 24             	add    $0x24,%esp
 8048bb4:	5b                   	pop    %ebx
 8048bb5:	5e                   	pop    %esi
 8048bb6:	c3                   	ret    

08048bb7 <phase_3>:
 8048bb7:	53                   	push   %ebx
 8048bb8:	83 ec 0c             	sub    $0xc,%esp
 8048bbb:	6a 0a                	push   $0xa
 8048bbd:	6a 00                	push   $0x0
 8048bbf:	ff 74 24 1c          	pushl  0x1c(%esp)
 8048bc3:	e8 b8 fc ff ff       	call   8048880 <strtol@plt>
 8048bc8:	83 c4 10             	add    $0x10,%esp
 8048bcb:	ba 06 00 00 00       	mov    $0x6,%edx
 8048bd0:	b9 11 00 00 00       	mov    $0x11,%ecx
 8048bd5:	eb 02                	jmp    8048bd9 <phase_3+0x22>
 8048bd7:	89 d9                	mov    %ebx,%ecx
 8048bd9:	8d 1c 89             	lea    (%ecx,%ecx,4),%ebx
 8048bdc:	83 ea 01             	sub    $0x1,%edx
 8048bdf:	75 f6                	jne    8048bd7 <phase_3+0x20>
 8048be1:	39 c1                	cmp    %eax,%ecx
 8048be3:	74 05                	je     8048bea <phase_3+0x33>
 8048be5:	e8 52 05 00 00       	call   804913c <explode_bomb>
 8048bea:	83 c4 08             	add    $0x8,%esp
 8048bed:	5b                   	pop    %ebx
 8048bee:	c3                   	ret    

08048bef <func4>:
 8048bef:	56                   	push   %esi
 8048bf0:	53                   	push   %ebx
 8048bf1:	83 ec 04             	sub    $0x4,%esp
 8048bf4:	8b 4c 24 10          	mov    0x10(%esp),%ecx
 8048bf8:	8b 5c 24 14          	mov    0x14(%esp),%ebx
 8048bfc:	8b 74 24 18          	mov    0x18(%esp),%esi
 8048c00:	89 f0                	mov    %esi,%eax
 8048c02:	29 d8                	sub    %ebx,%eax
 8048c04:	89 c2                	mov    %eax,%edx
 8048c06:	c1 ea 1f             	shr    $0x1f,%edx
 8048c09:	01 d0                	add    %edx,%eax
 8048c0b:	d1 f8                	sar    %eax
 8048c0d:	8d 14 18             	lea    (%eax,%ebx,1),%edx
 8048c10:	39 ca                	cmp    %ecx,%edx
 8048c12:	7e 15                	jle    8048c29 <func4+0x3a>
 8048c14:	83 ec 04             	sub    $0x4,%esp
 8048c17:	83 ea 01             	sub    $0x1,%edx
 8048c1a:	52                   	push   %edx
 8048c1b:	53                   	push   %ebx
 8048c1c:	51                   	push   %ecx
 8048c1d:	e8 cd ff ff ff       	call   8048bef <func4>
 8048c22:	83 c4 10             	add    $0x10,%esp
 8048c25:	01 c0                	add    %eax,%eax
 8048c27:	eb 1e                	jmp    8048c47 <func4+0x58>
 8048c29:	b8 00 00 00 00       	mov    $0x0,%eax
 8048c2e:	39 ca                	cmp    %ecx,%edx
 8048c30:	7d 15                	jge    8048c47 <func4+0x58>
 8048c32:	83 ec 04             	sub    $0x4,%esp
 8048c35:	56                   	push   %esi
 8048c36:	83 c2 01             	add    $0x1,%edx
 8048c39:	52                   	push   %edx
 8048c3a:	51                   	push   %ecx
 8048c3b:	e8 af ff ff ff       	call   8048bef <func4>
 8048c40:	83 c4 10             	add    $0x10,%esp
 8048c43:	8d 44 00 01          	lea    0x1(%eax,%eax,1),%eax
 8048c47:	83 c4 04             	add    $0x4,%esp
 8048c4a:	5b                   	pop    %ebx
 8048c4b:	5e                   	pop    %esi
 8048c4c:	c3                   	ret    

08048c4d <phase_4>:
 8048c4d:	83 ec 1c             	sub    $0x1c,%esp
 8048c50:	65 a1 14 00 00 00    	mov    %gs:0x14,%eax
 8048c56:	89 44 24 0c          	mov    %eax,0xc(%esp)
 8048c5a:	31 c0                	xor    %eax,%eax
 8048c5c:	8d 44 24 08          	lea    0x8(%esp),%eax
 8048c60:	50                   	push   %eax
 8048c61:	8d 44 24 08          	lea    0x8(%esp),%eax
 8048c65:	50                   	push   %eax
 8048c66:	68 93 a2 04 08       	push   $0x804a293
 8048c6b:	ff 74 24 2c          	pushl  0x2c(%esp)
 8048c6f:	e8 9c fb ff ff       	call   8048810 <__isoc99_sscanf@plt>
 8048c74:	83 c4 10             	add    $0x10,%esp
 8048c77:	83 f8 02             	cmp    $0x2,%eax
 8048c7a:	75 07                	jne    8048c83 <phase_4+0x36>
 8048c7c:	83 7c 24 04 0e       	cmpl   $0xe,0x4(%esp)
 8048c81:	76 05                	jbe    8048c88 <phase_4+0x3b>
 8048c83:	e8 b4 04 00 00       	call   804913c <explode_bomb>
 8048c88:	83 ec 04             	sub    $0x4,%esp
 8048c8b:	6a 0e                	push   $0xe
 8048c8d:	6a 00                	push   $0x0
 8048c8f:	ff 74 24 10          	pushl  0x10(%esp)
 8048c93:	e8 57 ff ff ff       	call   8048bef <func4>
 8048c98:	83 c4 10             	add    $0x10,%esp
 8048c9b:	83 f8 06             	cmp    $0x6,%eax
 8048c9e:	75 07                	jne    8048ca7 <phase_4+0x5a>
 8048ca0:	83 7c 24 08 06       	cmpl   $0x6,0x8(%esp)
 8048ca5:	74 05                	je     8048cac <phase_4+0x5f>
 8048ca7:	e8 90 04 00 00       	call   804913c <explode_bomb>
 8048cac:	8b 44 24 0c          	mov    0xc(%esp),%eax
 8048cb0:	65 33 05 14 00 00 00 	xor    %gs:0x14,%eax
 8048cb7:	74 05                	je     8048cbe <phase_4+0x71>
 8048cb9:	e8 d2 fa ff ff       	call   8048790 <__stack_chk_fail@plt>
 8048cbe:	83 c4 1c             	add    $0x1c,%esp
 8048cc1:	c3                   	ret    

08048cc2 <phase_5>:
 8048cc2:	56                   	push   %esi
 8048cc3:	53                   	push   %ebx
 8048cc4:	83 ec 2c             	sub    $0x2c,%esp
 8048cc7:	65 a1 14 00 00 00    	mov    %gs:0x14,%eax
 8048ccd:	89 44 24 24          	mov    %eax,0x24(%esp)
 8048cd1:	31 c0                	xor    %eax,%eax
 8048cd3:	8d 44 24 0c          	lea    0xc(%esp),%eax
 8048cd7:	50                   	push   %eax
 8048cd8:	ff 74 24 3c          	pushl  0x3c(%esp)
 8048cdc:	e8 98 04 00 00       	call   8049179 <read_six_numbers>
 8048ce1:	83 c4 10             	add    $0x10,%esp
 8048ce4:	83 7c 24 04 01       	cmpl   $0x1,0x4(%esp)
 8048ce9:	75 07                	jne    8048cf2 <phase_5+0x30>
 8048ceb:	83 7c 24 08 01       	cmpl   $0x1,0x8(%esp)
 8048cf0:	74 05                	je     8048cf7 <phase_5+0x35>
 8048cf2:	e8 45 04 00 00       	call   804913c <explode_bomb>
 8048cf7:	8d 5c 24 04          	lea    0x4(%esp),%ebx
 8048cfb:	8d 74 24 14          	lea    0x14(%esp),%esi
 8048cff:	8b 43 04             	mov    0x4(%ebx),%eax
 8048d02:	03 03                	add    (%ebx),%eax
 8048d04:	39 43 08             	cmp    %eax,0x8(%ebx)
 8048d07:	74 05                	je     8048d0e <phase_5+0x4c>
 8048d09:	e8 2e 04 00 00       	call   804913c <explode_bomb>
 8048d0e:	83 c3 04             	add    $0x4,%ebx
 8048d11:	39 f3                	cmp    %esi,%ebx
 8048d13:	75 ea                	jne    8048cff <phase_5+0x3d>
 8048d15:	8b 44 24 1c          	mov    0x1c(%esp),%eax
 8048d19:	65 33 05 14 00 00 00 	xor    %gs:0x14,%eax
 8048d20:	74 05                	je     8048d27 <phase_5+0x65>
 8048d22:	e8 69 fa ff ff       	call   8048790 <__stack_chk_fail@plt>
 8048d27:	83 c4 24             	add    $0x24,%esp
 8048d2a:	5b                   	pop    %ebx
 8048d2b:	5e                   	pop    %esi
 8048d2c:	c3                   	ret    

08048d2d <phase_6>:
 8048d2d:	56                   	push   %esi
 8048d2e:	53                   	push   %ebx
 8048d2f:	83 ec 4c             	sub    $0x4c,%esp
 8048d32:	65 a1 14 00 00 00    	mov    %gs:0x14,%eax
 8048d38:	89 44 24 44          	mov    %eax,0x44(%esp)
 8048d3c:	31 c0                	xor    %eax,%eax
 8048d3e:	8d 44 24 14          	lea    0x14(%esp),%eax
 8048d42:	50                   	push   %eax
 8048d43:	ff 74 24 5c          	pushl  0x5c(%esp)
 8048d47:	e8 2d 04 00 00       	call   8049179 <read_six_numbers>
 8048d4c:	83 c4 10             	add    $0x10,%esp
 8048d4f:	be 00 00 00 00       	mov    $0x0,%esi
 8048d54:	8b 44 b4 0c          	mov    0xc(%esp,%esi,4),%eax
 8048d58:	83 e8 01             	sub    $0x1,%eax
 8048d5b:	83 f8 05             	cmp    $0x5,%eax
 8048d5e:	76 05                	jbe    8048d65 <phase_6+0x38>
 8048d60:	e8 d7 03 00 00       	call   804913c <explode_bomb>
 8048d65:	83 c6 01             	add    $0x1,%esi
 8048d68:	83 fe 06             	cmp    $0x6,%esi
 8048d6b:	74 33                	je     8048da0 <phase_6+0x73>
 8048d6d:	89 f3                	mov    %esi,%ebx
 8048d6f:	8b 44 9c 0c          	mov    0xc(%esp,%ebx,4),%eax
 8048d73:	39 44 b4 08          	cmp    %eax,0x8(%esp,%esi,4)
 8048d77:	75 05                	jne    8048d7e <phase_6+0x51>
 8048d79:	e8 be 03 00 00       	call   804913c <explode_bomb>
 8048d7e:	83 c3 01             	add    $0x1,%ebx
 8048d81:	83 fb 05             	cmp    $0x5,%ebx
 8048d84:	7e e9                	jle    8048d6f <phase_6+0x42>
 8048d86:	eb cc                	jmp    8048d54 <phase_6+0x27>
 8048d88:	8b 52 08             	mov    0x8(%edx),%edx
 8048d8b:	83 c0 01             	add    $0x1,%eax
 8048d8e:	39 c8                	cmp    %ecx,%eax
 8048d90:	75 f6                	jne    8048d88 <phase_6+0x5b>
 8048d92:	89 54 b4 24          	mov    %edx,0x24(%esp,%esi,4)
 8048d96:	83 c3 01             	add    $0x1,%ebx
 8048d99:	83 fb 06             	cmp    $0x6,%ebx
 8048d9c:	75 07                	jne    8048da5 <phase_6+0x78>
 8048d9e:	eb 1c                	jmp    8048dbc <phase_6+0x8f>
 8048da0:	bb 00 00 00 00       	mov    $0x0,%ebx
 8048da5:	89 de                	mov    %ebx,%esi
 8048da7:	8b 4c 9c 0c          	mov    0xc(%esp,%ebx,4),%ecx
 8048dab:	b8 01 00 00 00       	mov    $0x1,%eax
 8048db0:	ba 3c c1 04 08       	mov    $0x804c13c,%edx
 8048db5:	83 f9 01             	cmp    $0x1,%ecx
 8048db8:	7f ce                	jg     8048d88 <phase_6+0x5b>
 8048dba:	eb d6                	jmp    8048d92 <phase_6+0x65>
 8048dbc:	8b 5c 24 24          	mov    0x24(%esp),%ebx
 8048dc0:	8d 44 24 24          	lea    0x24(%esp),%eax
 8048dc4:	8d 74 24 38          	lea    0x38(%esp),%esi
 8048dc8:	89 d9                	mov    %ebx,%ecx
 8048dca:	8b 50 04             	mov    0x4(%eax),%edx
 8048dcd:	89 51 08             	mov    %edx,0x8(%ecx)
 8048dd0:	83 c0 04             	add    $0x4,%eax
 8048dd3:	89 d1                	mov    %edx,%ecx
 8048dd5:	39 f0                	cmp    %esi,%eax
 8048dd7:	75 f1                	jne    8048dca <phase_6+0x9d>
 8048dd9:	c7 42 08 00 00 00 00 	movl   $0x0,0x8(%edx)
 8048de0:	be 05 00 00 00       	mov    $0x5,%esi
 8048de5:	8b 43 08             	mov    0x8(%ebx),%eax
 8048de8:	8b 00                	mov    (%eax),%eax
 8048dea:	39 03                	cmp    %eax,(%ebx)
 8048dec:	7d 05                	jge    8048df3 <phase_6+0xc6>
 8048dee:	e8 49 03 00 00       	call   804913c <explode_bomb>
 8048df3:	8b 5b 08             	mov    0x8(%ebx),%ebx
 8048df6:	83 ee 01             	sub    $0x1,%esi
 8048df9:	75 ea                	jne    8048de5 <phase_6+0xb8>
 8048dfb:	8b 44 24 3c          	mov    0x3c(%esp),%eax
 8048dff:	65 33 05 14 00 00 00 	xor    %gs:0x14,%eax
 8048e06:	74 05                	je     8048e0d <phase_6+0xe0>
 8048e08:	e8 83 f9 ff ff       	call   8048790 <__stack_chk_fail@plt>
 8048e0d:	83 c4 44             	add    $0x44,%esp
 8048e10:	5b                   	pop    %ebx
 8048e11:	5e                   	pop    %esi
 8048e12:	c3                   	ret    

08048e13 <fun7>:
 8048e13:	53                   	push   %ebx
 8048e14:	83 ec 08             	sub    $0x8,%esp
 8048e17:	8b 54 24 10          	mov    0x10(%esp),%edx
 8048e1b:	8b 4c 24 14          	mov    0x14(%esp),%ecx
 8048e1f:	85 d2                	test   %edx,%edx
 8048e21:	74 37                	je     8048e5a <fun7+0x47>
 8048e23:	8b 1a                	mov    (%edx),%ebx
 8048e25:	39 cb                	cmp    %ecx,%ebx
 8048e27:	7e 13                	jle    8048e3c <fun7+0x29>
 8048e29:	83 ec 08             	sub    $0x8,%esp
 8048e2c:	51                   	push   %ecx
 8048e2d:	ff 72 04             	pushl  0x4(%edx)
 8048e30:	e8 de ff ff ff       	call   8048e13 <fun7>
 8048e35:	83 c4 10             	add    $0x10,%esp
 8048e38:	01 c0                	add    %eax,%eax
 8048e3a:	eb 23                	jmp    8048e5f <fun7+0x4c>
 8048e3c:	b8 00 00 00 00       	mov    $0x0,%eax
 8048e41:	39 cb                	cmp    %ecx,%ebx
 8048e43:	74 1a                	je     8048e5f <fun7+0x4c>
 8048e45:	83 ec 08             	sub    $0x8,%esp
 8048e48:	51                   	push   %ecx
 8048e49:	ff 72 08             	pushl  0x8(%edx)
 8048e4c:	e8 c2 ff ff ff       	call   8048e13 <fun7>
 8048e51:	83 c4 10             	add    $0x10,%esp
 8048e54:	8d 44 00 01          	lea    0x1(%eax,%eax,1),%eax
 8048e58:	eb 05                	jmp    8048e5f <fun7+0x4c>
 8048e5a:	b8 ff ff ff ff       	mov    $0xffffffff,%eax
 8048e5f:	83 c4 08             	add    $0x8,%esp
 8048e62:	5b                   	pop    %ebx
 8048e63:	c3                   	ret    

08048e64 <secret_phase>:
 8048e64:	53                   	push   %ebx
 8048e65:	83 ec 08             	sub    $0x8,%esp
 8048e68:	e8 47 03 00 00       	call   80491b4 <read_line>
 8048e6d:	83 ec 04             	sub    $0x4,%esp
 8048e70:	6a 0a                	push   $0xa
 8048e72:	6a 00                	push   $0x0
 8048e74:	50                   	push   %eax
 8048e75:	e8 06 fa ff ff       	call   8048880 <strtol@plt>
 8048e7a:	89 c3                	mov    %eax,%ebx
 8048e7c:	8d 40 ff             	lea    -0x1(%eax),%eax
 8048e7f:	83 c4 10             	add    $0x10,%esp
 8048e82:	3d e8 03 00 00       	cmp    $0x3e8,%eax
 8048e87:	76 05                	jbe    8048e8e <secret_phase+0x2a>
 8048e89:	e8 ae 02 00 00       	call   804913c <explode_bomb>
 8048e8e:	83 ec 08             	sub    $0x8,%esp
 8048e91:	53                   	push   %ebx
 8048e92:	68 88 c0 04 08       	push   $0x804c088
 8048e97:	e8 77 ff ff ff       	call   8048e13 <fun7>
 8048e9c:	83 c4 10             	add    $0x10,%esp
 8048e9f:	83 f8 06             	cmp    $0x6,%eax
 8048ea2:	74 05                	je     8048ea9 <secret_phase+0x45>
 8048ea4:	e8 93 02 00 00       	call   804913c <explode_bomb>
 8048ea9:	83 ec 0c             	sub    $0xc,%esp
 8048eac:	68 b4 a0 04 08       	push   $0x804a0b4
 8048eb1:	e8 0a f9 ff ff       	call   80487c0 <puts@plt>
 8048eb6:	e8 f2 03 00 00       	call   80492ad <phase_defused>
 8048ebb:	83 c4 18             	add    $0x18,%esp
 8048ebe:	5b                   	pop    %ebx
 8048ebf:	c3                   	ret    

08048ec0 <sig_handler>:
 8048ec0:	83 ec 18             	sub    $0x18,%esp
 8048ec3:	68 dc a0 04 08       	push   $0x804a0dc
 8048ec8:	e8 f3 f8 ff ff       	call   80487c0 <puts@plt>
 8048ecd:	c7 04 24 03 00 00 00 	movl   $0x3,(%esp)
 8048ed4:	e8 97 f8 ff ff       	call   8048770 <sleep@plt>
 8048ed9:	83 c4 08             	add    $0x8,%esp
 8048edc:	68 29 a2 04 08       	push   $0x804a229
 8048ee1:	6a 01                	push   $0x1
 8048ee3:	e8 58 f9 ff ff       	call   8048840 <__printf_chk@plt>
 8048ee8:	83 c4 04             	add    $0x4,%esp
 8048eeb:	ff 35 e4 c3 04 08    	pushl  0x804c3e4
 8048ef1:	e8 4a f8 ff ff       	call   8048740 <fflush@plt>
 8048ef6:	c7 04 24 01 00 00 00 	movl   $0x1,(%esp)
 8048efd:	e8 6e f8 ff ff       	call   8048770 <sleep@plt>
 8048f02:	c7 04 24 31 a2 04 08 	movl   $0x804a231,(%esp)
 8048f09:	e8 b2 f8 ff ff       	call   80487c0 <puts@plt>
 8048f0e:	c7 04 24 10 00 00 00 	movl   $0x10,(%esp)
 8048f15:	e8 c6 f8 ff ff       	call   80487e0 <exit@plt>

08048f1a <invalid_phase>:
 8048f1a:	83 ec 10             	sub    $0x10,%esp
 8048f1d:	ff 74 24 14          	pushl  0x14(%esp)
 8048f21:	68 39 a2 04 08       	push   $0x804a239
 8048f26:	6a 01                	push   $0x1
 8048f28:	e8 13 f9 ff ff       	call   8048840 <__printf_chk@plt>
 8048f2d:	c7 04 24 08 00 00 00 	movl   $0x8,(%esp)
 8048f34:	e8 a7 f8 ff ff       	call   80487e0 <exit@plt>

08048f39 <string_length>:
 8048f39:	8b 54 24 04          	mov    0x4(%esp),%edx
 8048f3d:	80 3a 00             	cmpb   $0x0,(%edx)
 8048f40:	74 10                	je     8048f52 <string_length+0x19>
 8048f42:	b8 00 00 00 00       	mov    $0x0,%eax
 8048f47:	83 c0 01             	add    $0x1,%eax
 8048f4a:	80 3c 02 00          	cmpb   $0x0,(%edx,%eax,1)
 8048f4e:	75 f7                	jne    8048f47 <string_length+0xe>
 8048f50:	f3 c3                	repz ret 
 8048f52:	b8 00 00 00 00       	mov    $0x0,%eax
 8048f57:	c3                   	ret    

08048f58 <strings_not_equal>:
 8048f58:	57                   	push   %edi
 8048f59:	56                   	push   %esi
 8048f5a:	53                   	push   %ebx
 8048f5b:	8b 5c 24 10          	mov    0x10(%esp),%ebx
 8048f5f:	8b 74 24 14          	mov    0x14(%esp),%esi
 8048f63:	53                   	push   %ebx
 8048f64:	e8 d0 ff ff ff       	call   8048f39 <string_length>
 8048f69:	89 c7                	mov    %eax,%edi
 8048f6b:	89 34 24             	mov    %esi,(%esp)
 8048f6e:	e8 c6 ff ff ff       	call   8048f39 <string_length>
 8048f73:	83 c4 04             	add    $0x4,%esp
 8048f76:	ba 01 00 00 00       	mov    $0x1,%edx
 8048f7b:	39 c7                	cmp    %eax,%edi
 8048f7d:	75 38                	jne    8048fb7 <strings_not_equal+0x5f>
 8048f7f:	0f b6 03             	movzbl (%ebx),%eax
 8048f82:	84 c0                	test   %al,%al
 8048f84:	74 1e                	je     8048fa4 <strings_not_equal+0x4c>
 8048f86:	3a 06                	cmp    (%esi),%al
 8048f88:	74 06                	je     8048f90 <strings_not_equal+0x38>
 8048f8a:	eb 1f                	jmp    8048fab <strings_not_equal+0x53>
 8048f8c:	3a 06                	cmp    (%esi),%al
 8048f8e:	75 22                	jne    8048fb2 <strings_not_equal+0x5a>
 8048f90:	83 c3 01             	add    $0x1,%ebx
 8048f93:	83 c6 01             	add    $0x1,%esi
 8048f96:	0f b6 03             	movzbl (%ebx),%eax
 8048f99:	84 c0                	test   %al,%al
 8048f9b:	75 ef                	jne    8048f8c <strings_not_equal+0x34>
 8048f9d:	ba 00 00 00 00       	mov    $0x0,%edx
 8048fa2:	eb 13                	jmp    8048fb7 <strings_not_equal+0x5f>
 8048fa4:	ba 00 00 00 00       	mov    $0x0,%edx
 8048fa9:	eb 0c                	jmp    8048fb7 <strings_not_equal+0x5f>
 8048fab:	ba 01 00 00 00       	mov    $0x1,%edx
 8048fb0:	eb 05                	jmp    8048fb7 <strings_not_equal+0x5f>
 8048fb2:	ba 01 00 00 00       	mov    $0x1,%edx
 8048fb7:	89 d0                	mov    %edx,%eax
 8048fb9:	5b                   	pop    %ebx
 8048fba:	5e                   	pop    %esi
 8048fbb:	5f                   	pop    %edi
 8048fbc:	c3                   	ret    

08048fbd <initialize_bomb>:
 8048fbd:	83 ec 14             	sub    $0x14,%esp
 8048fc0:	68 c0 8e 04 08       	push   $0x8048ec0
 8048fc5:	6a 02                	push   $0x2
 8048fc7:	e8 94 f7 ff ff       	call   8048760 <signal@plt>
 8048fcc:	83 c4 1c             	add    $0x1c,%esp
 8048fcf:	c3                   	ret    

08048fd0 <initialize_bomb_solve>:
 8048fd0:	f3 c3                	repz ret 

08048fd2 <blank_line>:
 8048fd2:	56                   	push   %esi
 8048fd3:	53                   	push   %ebx
 8048fd4:	83 ec 04             	sub    $0x4,%esp
 8048fd7:	8b 74 24 10          	mov    0x10(%esp),%esi
 8048fdb:	eb 14                	jmp    8048ff1 <blank_line+0x1f>
 8048fdd:	e8 ce f8 ff ff       	call   80488b0 <__ctype_b_loc@plt>
 8048fe2:	83 c6 01             	add    $0x1,%esi
 8048fe5:	0f be db             	movsbl %bl,%ebx
 8048fe8:	8b 00                	mov    (%eax),%eax
 8048fea:	f6 44 58 01 20       	testb  $0x20,0x1(%eax,%ebx,2)
 8048fef:	74 0e                	je     8048fff <blank_line+0x2d>
 8048ff1:	0f b6 1e             	movzbl (%esi),%ebx
 8048ff4:	84 db                	test   %bl,%bl
 8048ff6:	75 e5                	jne    8048fdd <blank_line+0xb>
 8048ff8:	b8 01 00 00 00       	mov    $0x1,%eax
 8048ffd:	eb 05                	jmp    8049004 <blank_line+0x32>
 8048fff:	b8 00 00 00 00       	mov    $0x0,%eax
 8049004:	83 c4 04             	add    $0x4,%esp
 8049007:	5b                   	pop    %ebx
 8049008:	5e                   	pop    %esi
 8049009:	c3                   	ret    

0804900a <skip>:
 804900a:	53                   	push   %ebx
 804900b:	83 ec 08             	sub    $0x8,%esp
 804900e:	83 ec 04             	sub    $0x4,%esp
 8049011:	ff 35 f0 c3 04 08    	pushl  0x804c3f0
 8049017:	6a 50                	push   $0x50
 8049019:	a1 ec c3 04 08       	mov    0x804c3ec,%eax
 804901e:	8d 04 80             	lea    (%eax,%eax,4),%eax
 8049021:	c1 e0 04             	shl    $0x4,%eax
 8049024:	05 00 c4 04 08       	add    $0x804c400,%eax
 8049029:	50                   	push   %eax
 804902a:	e8 21 f7 ff ff       	call   8048750 <fgets@plt>
 804902f:	89 c3                	mov    %eax,%ebx
 8049031:	83 c4 10             	add    $0x10,%esp
 8049034:	85 c0                	test   %eax,%eax
 8049036:	74 10                	je     8049048 <skip+0x3e>
 8049038:	83 ec 0c             	sub    $0xc,%esp
 804903b:	50                   	push   %eax
 804903c:	e8 91 ff ff ff       	call   8048fd2 <blank_line>
 8049041:	83 c4 10             	add    $0x10,%esp
 8049044:	85 c0                	test   %eax,%eax
 8049046:	75 c6                	jne    804900e <skip+0x4>
 8049048:	89 d8                	mov    %ebx,%eax
 804904a:	83 c4 08             	add    $0x8,%esp
 804904d:	5b                   	pop    %ebx
 804904e:	c3                   	ret    

0804904f <send_msg>:
 804904f:	57                   	push   %edi
 8049050:	53                   	push   %ebx
 8049051:	81 ec 14 40 00 00    	sub    $0x4014,%esp
 8049057:	65 a1 14 00 00 00    	mov    %gs:0x14,%eax
 804905d:	89 84 24 0c 40 00 00 	mov    %eax,0x400c(%esp)
 8049064:	31 c0                	xor    %eax,%eax
 8049066:	8b 1d ec c3 04 08    	mov    0x804c3ec,%ebx
 804906c:	8d 54 9b fb          	lea    -0x5(%ebx,%ebx,4),%edx
 8049070:	c1 e2 04             	shl    $0x4,%edx
 8049073:	81 c2 00 c4 04 08    	add    $0x804c400,%edx
 8049079:	b9 ff ff ff ff       	mov    $0xffffffff,%ecx
 804907e:	89 d7                	mov    %edx,%edi
 8049080:	f2 ae                	repnz scas %es:(%edi),%al
 8049082:	f7 d1                	not    %ecx
 8049084:	83 c1 63             	add    $0x63,%ecx
 8049087:	81 f9 00 20 00 00    	cmp    $0x2000,%ecx
 804908d:	76 1b                	jbe    80490aa <send_msg+0x5b>
 804908f:	83 ec 08             	sub    $0x8,%esp
 8049092:	68 14 a1 04 08       	push   $0x804a114
 8049097:	6a 01                	push   $0x1
 8049099:	e8 a2 f7 ff ff       	call   8048840 <__printf_chk@plt>
 804909e:	c7 04 24 08 00 00 00 	movl   $0x8,(%esp)
 80490a5:	e8 36 f7 ff ff       	call   80487e0 <exit@plt>
 80490aa:	83 bc 24 20 40 00 00 	cmpl   $0x0,0x4020(%esp)
 80490b1:	00 
 80490b2:	b9 52 a2 04 08       	mov    $0x804a252,%ecx
 80490b7:	b8 4a a2 04 08       	mov    $0x804a24a,%eax
 80490bc:	0f 44 c1             	cmove  %ecx,%eax
 80490bf:	52                   	push   %edx
 80490c0:	53                   	push   %ebx
 80490c1:	50                   	push   %eax
 80490c2:	ff 35 a4 c1 04 08    	pushl  0x804c1a4
 80490c8:	68 5b a2 04 08       	push   $0x804a25b
 80490cd:	68 00 20 00 00       	push   $0x2000
 80490d2:	6a 01                	push   $0x1
 80490d4:	8d 5c 24 28          	lea    0x28(%esp),%ebx
 80490d8:	53                   	push   %ebx
 80490d9:	e8 e2 f7 ff ff       	call   80488c0 <__sprintf_chk@plt>
 80490de:	83 c4 14             	add    $0x14,%esp
 80490e1:	8d 84 24 18 20 00 00 	lea    0x2018(%esp),%eax
 80490e8:	50                   	push   %eax
 80490e9:	6a 00                	push   $0x0
 80490eb:	53                   	push   %ebx
 80490ec:	68 84 c1 04 08       	push   $0x804c184
 80490f1:	68 9c c1 04 08       	push   $0x804c19c
 80490f6:	e8 43 0d 00 00       	call   8049e3e <driver_post>
 80490fb:	83 c4 20             	add    $0x20,%esp
 80490fe:	85 c0                	test   %eax,%eax
 8049100:	79 1c                	jns    804911e <send_msg+0xcf>
 8049102:	83 ec 0c             	sub    $0xc,%esp
 8049105:	8d 84 24 18 20 00 00 	lea    0x2018(%esp),%eax
 804910c:	50                   	push   %eax
 804910d:	e8 ae f6 ff ff       	call   80487c0 <puts@plt>
 8049112:	c7 04 24 00 00 00 00 	movl   $0x0,(%esp)
 8049119:	e8 c2 f6 ff ff       	call   80487e0 <exit@plt>
 804911e:	8b 84 24 0c 40 00 00 	mov    0x400c(%esp),%eax
 8049125:	65 33 05 14 00 00 00 	xor    %gs:0x14,%eax
 804912c:	74 05                	je     8049133 <send_msg+0xe4>
 804912e:	e8 5d f6 ff ff       	call   8048790 <__stack_chk_fail@plt>
 8049133:	81 c4 14 40 00 00    	add    $0x4014,%esp
 8049139:	5b                   	pop    %ebx
 804913a:	5f                   	pop    %edi
 804913b:	c3                   	ret    

0804913c <explode_bomb>:
 804913c:	83 ec 18             	sub    $0x18,%esp
 804913f:	68 67 a2 04 08       	push   $0x804a267
 8049144:	e8 77 f6 ff ff       	call   80487c0 <puts@plt>
 8049149:	c7 04 24 70 a2 04 08 	movl   $0x804a270,(%esp)
 8049150:	e8 6b f6 ff ff       	call   80487c0 <puts@plt>
 8049155:	c7 04 24 00 00 00 00 	movl   $0x0,(%esp)
 804915c:	e8 ee fe ff ff       	call   804904f <send_msg>
 8049161:	c7 04 24 38 a1 04 08 	movl   $0x804a138,(%esp)
 8049168:	e8 53 f6 ff ff       	call   80487c0 <puts@plt>
 804916d:	c7 04 24 08 00 00 00 	movl   $0x8,(%esp)
 8049174:	e8 67 f6 ff ff       	call   80487e0 <exit@plt>

08049179 <read_six_numbers>:
 8049179:	83 ec 0c             	sub    $0xc,%esp
 804917c:	8b 44 24 14          	mov    0x14(%esp),%eax
 8049180:	8d 50 14             	lea    0x14(%eax),%edx
 8049183:	52                   	push   %edx
 8049184:	8d 50 10             	lea    0x10(%eax),%edx
 8049187:	52                   	push   %edx
 8049188:	8d 50 0c             	lea    0xc(%eax),%edx
 804918b:	52                   	push   %edx
 804918c:	8d 50 08             	lea    0x8(%eax),%edx
 804918f:	52                   	push   %edx
 8049190:	8d 50 04             	lea    0x4(%eax),%edx
 8049193:	52                   	push   %edx
 8049194:	50                   	push   %eax
 8049195:	68 87 a2 04 08       	push   $0x804a287
 804919a:	ff 74 24 2c          	pushl  0x2c(%esp)
 804919e:	e8 6d f6 ff ff       	call   8048810 <__isoc99_sscanf@plt>
 80491a3:	83 c4 20             	add    $0x20,%esp
 80491a6:	83 f8 05             	cmp    $0x5,%eax
 80491a9:	7f 05                	jg     80491b0 <read_six_numbers+0x37>
 80491ab:	e8 8c ff ff ff       	call   804913c <explode_bomb>
 80491b0:	83 c4 0c             	add    $0xc,%esp
 80491b3:	c3                   	ret    

080491b4 <read_line>:
 80491b4:	57                   	push   %edi
 80491b5:	56                   	push   %esi
 80491b6:	53                   	push   %ebx
 80491b7:	e8 4e fe ff ff       	call   804900a <skip>
 80491bc:	85 c0                	test   %eax,%eax
 80491be:	75 70                	jne    8049230 <read_line+0x7c>
 80491c0:	a1 e0 c3 04 08       	mov    0x804c3e0,%eax
 80491c5:	39 05 f0 c3 04 08    	cmp    %eax,0x804c3f0
 80491cb:	75 19                	jne    80491e6 <read_line+0x32>
 80491cd:	83 ec 0c             	sub    $0xc,%esp
 80491d0:	68 99 a2 04 08       	push   $0x804a299
 80491d5:	e8 e6 f5 ff ff       	call   80487c0 <puts@plt>
 80491da:	c7 04 24 08 00 00 00 	movl   $0x8,(%esp)
 80491e1:	e8 fa f5 ff ff       	call   80487e0 <exit@plt>
 80491e6:	83 ec 0c             	sub    $0xc,%esp
 80491e9:	68 b7 a2 04 08       	push   $0x804a2b7
 80491ee:	e8 bd f5 ff ff       	call   80487b0 <getenv@plt>
 80491f3:	83 c4 10             	add    $0x10,%esp
 80491f6:	85 c0                	test   %eax,%eax
 80491f8:	74 0a                	je     8049204 <read_line+0x50>
 80491fa:	83 ec 0c             	sub    $0xc,%esp
 80491fd:	6a 00                	push   $0x0
 80491ff:	e8 dc f5 ff ff       	call   80487e0 <exit@plt>
 8049204:	a1 e0 c3 04 08       	mov    0x804c3e0,%eax
 8049209:	a3 f0 c3 04 08       	mov    %eax,0x804c3f0
 804920e:	e8 f7 fd ff ff       	call   804900a <skip>
 8049213:	85 c0                	test   %eax,%eax
 8049215:	75 19                	jne    8049230 <read_line+0x7c>
 8049217:	83 ec 0c             	sub    $0xc,%esp
 804921a:	68 99 a2 04 08       	push   $0x804a299
 804921f:	e8 9c f5 ff ff       	call   80487c0 <puts@plt>
 8049224:	c7 04 24 00 00 00 00 	movl   $0x0,(%esp)
 804922b:	e8 b0 f5 ff ff       	call   80487e0 <exit@plt>
 8049230:	8b 15 ec c3 04 08    	mov    0x804c3ec,%edx
 8049236:	8d 1c 92             	lea    (%edx,%edx,4),%ebx
 8049239:	c1 e3 04             	shl    $0x4,%ebx
 804923c:	81 c3 00 c4 04 08    	add    $0x804c400,%ebx
 8049242:	b8 00 00 00 00       	mov    $0x0,%eax
 8049247:	b9 ff ff ff ff       	mov    $0xffffffff,%ecx
 804924c:	89 df                	mov    %ebx,%edi
 804924e:	f2 ae                	repnz scas %es:(%edi),%al
 8049250:	f7 d1                	not    %ecx
 8049252:	83 e9 01             	sub    $0x1,%ecx
 8049255:	83 f9 4e             	cmp    $0x4e,%ecx
 8049258:	7e 36                	jle    8049290 <read_line+0xdc>
 804925a:	83 ec 0c             	sub    $0xc,%esp
 804925d:	68 c2 a2 04 08       	push   $0x804a2c2
 8049262:	e8 59 f5 ff ff       	call   80487c0 <puts@plt>
 8049267:	a1 ec c3 04 08       	mov    0x804c3ec,%eax
 804926c:	8d 50 01             	lea    0x1(%eax),%edx
 804926f:	89 15 ec c3 04 08    	mov    %edx,0x804c3ec
 8049275:	6b c0 50             	imul   $0x50,%eax,%eax
 8049278:	05 00 c4 04 08       	add    $0x804c400,%eax
 804927d:	be dd a2 04 08       	mov    $0x804a2dd,%esi
 8049282:	b9 04 00 00 00       	mov    $0x4,%ecx
 8049287:	89 c7                	mov    %eax,%edi
 8049289:	f3 a5                	rep movsl %ds:(%esi),%es:(%edi)
 804928b:	e8 ac fe ff ff       	call   804913c <explode_bomb>
 8049290:	8d 04 92             	lea    (%edx,%edx,4),%eax
 8049293:	c1 e0 04             	shl    $0x4,%eax
 8049296:	c6 84 01 ff c3 04 08 	movb   $0x0,0x804c3ff(%ecx,%eax,1)
 804929d:	00 
 804929e:	83 c2 01             	add    $0x1,%edx
 80492a1:	89 15 ec c3 04 08    	mov    %edx,0x804c3ec
 80492a7:	89 d8                	mov    %ebx,%eax
 80492a9:	5b                   	pop    %ebx
 80492aa:	5e                   	pop    %esi
 80492ab:	5f                   	pop    %edi
 80492ac:	c3                   	ret    

080492ad <phase_defused>:
 80492ad:	83 ec 78             	sub    $0x78,%esp
 80492b0:	65 a1 14 00 00 00    	mov    %gs:0x14,%eax
 80492b6:	89 44 24 68          	mov    %eax,0x68(%esp)
 80492ba:	31 c0                	xor    %eax,%eax
 80492bc:	6a 01                	push   $0x1
 80492be:	e8 8c fd ff ff       	call   804904f <send_msg>
 80492c3:	83 c4 10             	add    $0x10,%esp
 80492c6:	83 3d ec c3 04 08 06 	cmpl   $0x6,0x804c3ec
 80492cd:	75 7f                	jne    804934e <phase_defused+0xa1>
 80492cf:	83 ec 0c             	sub    $0xc,%esp
 80492d2:	8d 44 24 18          	lea    0x18(%esp),%eax
 80492d6:	50                   	push   %eax
 80492d7:	8d 44 24 18          	lea    0x18(%esp),%eax
 80492db:	50                   	push   %eax
 80492dc:	8d 44 24 18          	lea    0x18(%esp),%eax
 80492e0:	50                   	push   %eax
 80492e1:	68 ed a2 04 08       	push   $0x804a2ed
 80492e6:	68 f0 c4 04 08       	push   $0x804c4f0
 80492eb:	e8 20 f5 ff ff       	call   8048810 <__isoc99_sscanf@plt>
 80492f0:	83 c4 20             	add    $0x20,%esp
 80492f3:	83 f8 03             	cmp    $0x3,%eax
 80492f6:	75 3a                	jne    8049332 <phase_defused+0x85>
 80492f8:	83 ec 08             	sub    $0x8,%esp
 80492fb:	68 f6 a2 04 08       	push   $0x804a2f6
 8049300:	8d 44 24 18          	lea    0x18(%esp),%eax
 8049304:	50                   	push   %eax
 8049305:	e8 4e fc ff ff       	call   8048f58 <strings_not_equal>
 804930a:	83 c4 10             	add    $0x10,%esp
 804930d:	85 c0                	test   %eax,%eax
 804930f:	75 21                	jne    8049332 <phase_defused+0x85>
 8049311:	83 ec 0c             	sub    $0xc,%esp
 8049314:	68 5c a1 04 08       	push   $0x804a15c
 8049319:	e8 a2 f4 ff ff       	call   80487c0 <puts@plt>
 804931e:	c7 04 24 84 a1 04 08 	movl   $0x804a184,(%esp)
 8049325:	e8 96 f4 ff ff       	call   80487c0 <puts@plt>
 804932a:	e8 35 fb ff ff       	call   8048e64 <secret_phase>
 804932f:	83 c4 10             	add    $0x10,%esp
 8049332:	83 ec 0c             	sub    $0xc,%esp
 8049335:	68 bc a1 04 08       	push   $0x804a1bc
 804933a:	e8 81 f4 ff ff       	call   80487c0 <puts@plt>
 804933f:	c7 04 24 e8 a1 04 08 	movl   $0x804a1e8,(%esp)
 8049346:	e8 75 f4 ff ff       	call   80487c0 <puts@plt>
 804934b:	83 c4 10             	add    $0x10,%esp
 804934e:	8b 44 24 5c          	mov    0x5c(%esp),%eax
 8049352:	65 33 05 14 00 00 00 	xor    %gs:0x14,%eax
 8049359:	74 05                	je     8049360 <phase_defused+0xb3>
 804935b:	e8 30 f4 ff ff       	call   8048790 <__stack_chk_fail@plt>
 8049360:	83 c4 6c             	add    $0x6c,%esp
 8049363:	c3                   	ret    

08049364 <sigalrm_handler>:
 8049364:	83 ec 0c             	sub    $0xc,%esp
 8049367:	6a 00                	push   $0x0
 8049369:	68 0c a3 04 08       	push   $0x804a30c
 804936e:	6a 01                	push   $0x1
 8049370:	ff 35 c0 c3 04 08    	pushl  0x804c3c0
 8049376:	e8 e5 f4 ff ff       	call   8048860 <__fprintf_chk@plt>
 804937b:	c7 04 24 01 00 00 00 	movl   $0x1,(%esp)
 8049382:	e8 59 f4 ff ff       	call   80487e0 <exit@plt>

08049387 <rio_readlineb>:
 8049387:	55                   	push   %ebp
 8049388:	57                   	push   %edi
 8049389:	56                   	push   %esi
 804938a:	53                   	push   %ebx
 804938b:	83 ec 2c             	sub    $0x2c,%esp
 804938e:	89 d7                	mov    %edx,%edi
 8049390:	89 4c 24 0c          	mov    %ecx,0xc(%esp)
 8049394:	65 8b 15 14 00 00 00 	mov    %gs:0x14,%edx
 804939b:	89 54 24 1c          	mov    %edx,0x1c(%esp)
 804939f:	31 d2                	xor    %edx,%edx
 80493a1:	83 f9 01             	cmp    $0x1,%ecx
 80493a4:	76 79                	jbe    804941f <rio_readlineb+0x98>
 80493a6:	89 c3                	mov    %eax,%ebx
 80493a8:	89 4c 24 08          	mov    %ecx,0x8(%esp)
 80493ac:	bd 01 00 00 00       	mov    $0x1,%ebp
 80493b1:	8d 73 0c             	lea    0xc(%ebx),%esi
 80493b4:	eb 2d                	jmp    80493e3 <rio_readlineb+0x5c>
 80493b6:	83 ec 04             	sub    $0x4,%esp
 80493b9:	68 00 20 00 00       	push   $0x2000
 80493be:	56                   	push   %esi
 80493bf:	ff 33                	pushl  (%ebx)
 80493c1:	e8 6a f3 ff ff       	call   8048730 <read@plt>
 80493c6:	89 43 04             	mov    %eax,0x4(%ebx)
 80493c9:	83 c4 10             	add    $0x10,%esp
 80493cc:	85 c0                	test   %eax,%eax
 80493ce:	79 0c                	jns    80493dc <rio_readlineb+0x55>
 80493d0:	e8 5b f4 ff ff       	call   8048830 <__errno_location@plt>
 80493d5:	83 38 04             	cmpl   $0x4,(%eax)
 80493d8:	74 09                	je     80493e3 <rio_readlineb+0x5c>
 80493da:	eb 62                	jmp    804943e <rio_readlineb+0xb7>
 80493dc:	85 c0                	test   %eax,%eax
 80493de:	74 63                	je     8049443 <rio_readlineb+0xbc>
 80493e0:	89 73 08             	mov    %esi,0x8(%ebx)
 80493e3:	8b 43 04             	mov    0x4(%ebx),%eax
 80493e6:	85 c0                	test   %eax,%eax
 80493e8:	7e cc                	jle    80493b6 <rio_readlineb+0x2f>
 80493ea:	8b 4b 08             	mov    0x8(%ebx),%ecx
 80493ed:	0f b6 11             	movzbl (%ecx),%edx
 80493f0:	88 54 24 1b          	mov    %dl,0x1b(%esp)
 80493f4:	83 c1 01             	add    $0x1,%ecx
 80493f7:	89 4b 08             	mov    %ecx,0x8(%ebx)
 80493fa:	83 e8 01             	sub    $0x1,%eax
 80493fd:	89 43 04             	mov    %eax,0x4(%ebx)
 8049400:	83 c7 01             	add    $0x1,%edi
 8049403:	88 57 ff             	mov    %dl,-0x1(%edi)
 8049406:	80 fa 0a             	cmp    $0xa,%dl
 8049409:	75 09                	jne    8049414 <rio_readlineb+0x8d>
 804940b:	eb 1d                	jmp    804942a <rio_readlineb+0xa3>
 804940d:	83 fd 01             	cmp    $0x1,%ebp
 8049410:	75 18                	jne    804942a <rio_readlineb+0xa3>
 8049412:	eb 1b                	jmp    804942f <rio_readlineb+0xa8>
 8049414:	83 c5 01             	add    $0x1,%ebp
 8049417:	3b 6c 24 08          	cmp    0x8(%esp),%ebp
 804941b:	74 09                	je     8049426 <rio_readlineb+0x9f>
 804941d:	eb c4                	jmp    80493e3 <rio_readlineb+0x5c>
 804941f:	bd 01 00 00 00       	mov    $0x1,%ebp
 8049424:	eb 04                	jmp    804942a <rio_readlineb+0xa3>
 8049426:	8b 6c 24 0c          	mov    0xc(%esp),%ebp
 804942a:	c6 07 00             	movb   $0x0,(%edi)
 804942d:	89 e8                	mov    %ebp,%eax
 804942f:	8b 54 24 1c          	mov    0x1c(%esp),%edx
 8049433:	65 33 15 14 00 00 00 	xor    %gs:0x14,%edx
 804943a:	74 17                	je     8049453 <rio_readlineb+0xcc>
 804943c:	eb 10                	jmp    804944e <rio_readlineb+0xc7>
 804943e:	b8 ff ff ff ff       	mov    $0xffffffff,%eax
 8049443:	85 c0                	test   %eax,%eax
 8049445:	74 c6                	je     804940d <rio_readlineb+0x86>
 8049447:	b8 ff ff ff ff       	mov    $0xffffffff,%eax
 804944c:	eb e1                	jmp    804942f <rio_readlineb+0xa8>
 804944e:	e8 3d f3 ff ff       	call   8048790 <__stack_chk_fail@plt>
 8049453:	83 c4 2c             	add    $0x2c,%esp
 8049456:	5b                   	pop    %ebx
 8049457:	5e                   	pop    %esi
 8049458:	5f                   	pop    %edi
 8049459:	5d                   	pop    %ebp
 804945a:	c3                   	ret    

0804945b <submitr>:
 804945b:	55                   	push   %ebp
 804945c:	57                   	push   %edi
 804945d:	56                   	push   %esi
 804945e:	53                   	push   %ebx
 804945f:	81 ec 60 a0 00 00    	sub    $0xa060,%esp
 8049465:	8b b4 24 74 a0 00 00 	mov    0xa074(%esp),%esi
 804946c:	8b 84 24 7c a0 00 00 	mov    0xa07c(%esp),%eax
 8049473:	89 44 24 0c          	mov    %eax,0xc(%esp)
 8049477:	8b 84 24 80 a0 00 00 	mov    0xa080(%esp),%eax
 804947e:	89 44 24 10          	mov    %eax,0x10(%esp)
 8049482:	8b 84 24 84 a0 00 00 	mov    0xa084(%esp),%eax
 8049489:	89 44 24 1c          	mov    %eax,0x1c(%esp)
 804948d:	8b 84 24 88 a0 00 00 	mov    0xa088(%esp),%eax
 8049494:	89 44 24 14          	mov    %eax,0x14(%esp)
 8049498:	8b 9c 24 8c a0 00 00 	mov    0xa08c(%esp),%ebx
 804949f:	8b 84 24 90 a0 00 00 	mov    0xa090(%esp),%eax
 80494a6:	89 44 24 18          	mov    %eax,0x18(%esp)
 80494aa:	65 a1 14 00 00 00    	mov    %gs:0x14,%eax
 80494b0:	89 84 24 50 a0 00 00 	mov    %eax,0xa050(%esp)
 80494b7:	31 c0                	xor    %eax,%eax
 80494b9:	c7 44 24 30 00 00 00 	movl   $0x0,0x30(%esp)
 80494c0:	00 
 80494c1:	6a 00                	push   $0x0
 80494c3:	6a 01                	push   $0x1
 80494c5:	6a 02                	push   $0x2
 80494c7:	e8 84 f3 ff ff       	call   8048850 <socket@plt>
 80494cc:	89 44 24 14          	mov    %eax,0x14(%esp)
 80494d0:	83 c4 10             	add    $0x10,%esp
 80494d3:	85 c0                	test   %eax,%eax
 80494d5:	79 52                	jns    8049529 <submitr+0xce>
 80494d7:	8b 44 24 14          	mov    0x14(%esp),%eax
 80494db:	c7 00 45 72 72 6f    	movl   $0x6f727245,(%eax)
 80494e1:	c7 40 04 72 3a 20 43 	movl   $0x43203a72,0x4(%eax)
 80494e8:	c7 40 08 6c 69 65 6e 	movl   $0x6e65696c,0x8(%eax)
 80494ef:	c7 40 0c 74 20 75 6e 	movl   $0x6e752074,0xc(%eax)
 80494f6:	c7 40 10 61 62 6c 65 	movl   $0x656c6261,0x10(%eax)
 80494fd:	c7 40 14 20 74 6f 20 	movl   $0x206f7420,0x14(%eax)
 8049504:	c7 40 18 63 72 65 61 	movl   $0x61657263,0x18(%eax)
 804950b:	c7 40 1c 74 65 20 73 	movl   $0x73206574,0x1c(%eax)
 8049512:	c7 40 20 6f 63 6b 65 	movl   $0x656b636f,0x20(%eax)
 8049519:	66 c7 40 24 74 00    	movw   $0x74,0x24(%eax)
 804951f:	b8 ff ff ff ff       	mov    $0xffffffff,%eax
 8049524:	e9 3f 06 00 00       	jmp    8049b68 <submitr+0x70d>
 8049529:	83 ec 0c             	sub    $0xc,%esp
 804952c:	56                   	push   %esi
 804952d:	e8 3e f3 ff ff       	call   8048870 <gethostbyname@plt>
 8049532:	83 c4 10             	add    $0x10,%esp
 8049535:	85 c0                	test   %eax,%eax
 8049537:	75 73                	jne    80495ac <submitr+0x151>
 8049539:	8b 44 24 14          	mov    0x14(%esp),%eax
 804953d:	c7 00 45 72 72 6f    	movl   $0x6f727245,(%eax)
 8049543:	c7 40 04 72 3a 20 44 	movl   $0x44203a72,0x4(%eax)
 804954a:	c7 40 08 4e 53 20 69 	movl   $0x6920534e,0x8(%eax)
 8049551:	c7 40 0c 73 20 75 6e 	movl   $0x6e752073,0xc(%eax)
 8049558:	c7 40 10 61 62 6c 65 	movl   $0x656c6261,0x10(%eax)
 804955f:	c7 40 14 20 74 6f 20 	movl   $0x206f7420,0x14(%eax)
 8049566:	c7 40 18 72 65 73 6f 	movl   $0x6f736572,0x18(%eax)
 804956d:	c7 40 1c 6c 76 65 20 	movl   $0x2065766c,0x1c(%eax)
 8049574:	c7 40 20 73 65 72 76 	movl   $0x76726573,0x20(%eax)
 804957b:	c7 40 24 65 72 20 61 	movl   $0x61207265,0x24(%eax)
 8049582:	c7 40 28 64 64 72 65 	movl   $0x65726464,0x28(%eax)
 8049589:	66 c7 40 2c 73 73    	movw   $0x7373,0x2c(%eax)
 804958f:	c6 40 2e 00          	movb   $0x0,0x2e(%eax)
 8049593:	83 ec 0c             	sub    $0xc,%esp
 8049596:	ff 74 24 10          	pushl  0x10(%esp)
 804959a:	e8 01 f3 ff ff       	call   80488a0 <close@plt>
 804959f:	83 c4 10             	add    $0x10,%esp
 80495a2:	b8 ff ff ff ff       	mov    $0xffffffff,%eax
 80495a7:	e9 bc 05 00 00       	jmp    8049b68 <submitr+0x70d>
 80495ac:	8d 74 24 30          	lea    0x30(%esp),%esi
 80495b0:	c7 44 24 30 00 00 00 	movl   $0x0,0x30(%esp)
 80495b7:	00 
 80495b8:	c7 44 24 34 00 00 00 	movl   $0x0,0x34(%esp)
 80495bf:	00 
 80495c0:	c7 44 24 38 00 00 00 	movl   $0x0,0x38(%esp)
 80495c7:	00 
 80495c8:	c7 44 24 3c 00 00 00 	movl   $0x0,0x3c(%esp)
 80495cf:	00 
 80495d0:	66 c7 44 24 30 02 00 	movw   $0x2,0x30(%esp)
 80495d7:	6a 0c                	push   $0xc
 80495d9:	ff 70 0c             	pushl  0xc(%eax)
 80495dc:	8b 40 10             	mov    0x10(%eax),%eax
 80495df:	ff 30                	pushl  (%eax)
 80495e1:	8d 44 24 40          	lea    0x40(%esp),%eax
 80495e5:	50                   	push   %eax
 80495e6:	e8 e5 f1 ff ff       	call   80487d0 <__memmove_chk@plt>
 80495eb:	0f b7 84 24 84 a0 00 	movzwl 0xa084(%esp),%eax
 80495f2:	00 
 80495f3:	66 c1 c8 08          	ror    $0x8,%ax
 80495f7:	66 89 44 24 42       	mov    %ax,0x42(%esp)
 80495fc:	83 c4 0c             	add    $0xc,%esp
 80495ff:	6a 10                	push   $0x10
 8049601:	56                   	push   %esi
 8049602:	ff 74 24 10          	pushl  0x10(%esp)
 8049606:	e8 85 f2 ff ff       	call   8048890 <connect@plt>
 804960b:	83 c4 10             	add    $0x10,%esp
 804960e:	85 c0                	test   %eax,%eax
 8049610:	79 65                	jns    8049677 <submitr+0x21c>
 8049612:	8b 44 24 14          	mov    0x14(%esp),%eax
 8049616:	c7 00 45 72 72 6f    	movl   $0x6f727245,(%eax)
 804961c:	c7 40 04 72 3a 20 55 	movl   $0x55203a72,0x4(%eax)
 8049623:	c7 40 08 6e 61 62 6c 	movl   $0x6c62616e,0x8(%eax)
 804962a:	c7 40 0c 65 20 74 6f 	movl   $0x6f742065,0xc(%eax)
 8049631:	c7 40 10 20 63 6f 6e 	movl   $0x6e6f6320,0x10(%eax)
 8049638:	c7 40 14 6e 65 63 74 	movl   $0x7463656e,0x14(%eax)
 804963f:	c7 40 18 20 74 6f 20 	movl   $0x206f7420,0x18(%eax)
 8049646:	c7 40 1c 74 68 65 20 	movl   $0x20656874,0x1c(%eax)
 804964d:	c7 40 20 73 65 72 76 	movl   $0x76726573,0x20(%eax)
 8049654:	66 c7 40 24 65 72    	movw   $0x7265,0x24(%eax)
 804965a:	c6 40 26 00          	movb   $0x0,0x26(%eax)
 804965e:	83 ec 0c             	sub    $0xc,%esp
 8049661:	ff 74 24 10          	pushl  0x10(%esp)
 8049665:	e8 36 f2 ff ff       	call   80488a0 <close@plt>
 804966a:	83 c4 10             	add    $0x10,%esp
 804966d:	b8 ff ff ff ff       	mov    $0xffffffff,%eax
 8049672:	e9 f1 04 00 00       	jmp    8049b68 <submitr+0x70d>
 8049677:	be ff ff ff ff       	mov    $0xffffffff,%esi
 804967c:	b8 00 00 00 00       	mov    $0x0,%eax
 8049681:	89 f1                	mov    %esi,%ecx
 8049683:	89 df                	mov    %ebx,%edi
 8049685:	f2 ae                	repnz scas %es:(%edi),%al
 8049687:	f7 d1                	not    %ecx
 8049689:	89 cd                	mov    %ecx,%ebp
 804968b:	89 f1                	mov    %esi,%ecx
 804968d:	8b 7c 24 08          	mov    0x8(%esp),%edi
 8049691:	f2 ae                	repnz scas %es:(%edi),%al
 8049693:	89 4c 24 1c          	mov    %ecx,0x1c(%esp)
 8049697:	89 f1                	mov    %esi,%ecx
 8049699:	8b 7c 24 0c          	mov    0xc(%esp),%edi
 804969d:	f2 ae                	repnz scas %es:(%edi),%al
 804969f:	89 ca                	mov    %ecx,%edx
 80496a1:	f7 d2                	not    %edx
 80496a3:	89 f1                	mov    %esi,%ecx
 80496a5:	8b 7c 24 10          	mov    0x10(%esp),%edi
 80496a9:	f2 ae                	repnz scas %es:(%edi),%al
 80496ab:	2b 54 24 1c          	sub    0x1c(%esp),%edx
 80496af:	29 ca                	sub    %ecx,%edx
 80496b1:	8d 44 6d fd          	lea    -0x3(%ebp,%ebp,2),%eax
 80496b5:	8d 44 02 7b          	lea    0x7b(%edx,%eax,1),%eax
 80496b9:	3d 00 20 00 00       	cmp    $0x2000,%eax
 80496be:	76 7e                	jbe    804973e <submitr+0x2e3>
 80496c0:	8b 44 24 14          	mov    0x14(%esp),%eax
 80496c4:	c7 00 45 72 72 6f    	movl   $0x6f727245,(%eax)
 80496ca:	c7 40 04 72 3a 20 52 	movl   $0x52203a72,0x4(%eax)
 80496d1:	c7 40 08 65 73 75 6c 	movl   $0x6c757365,0x8(%eax)
 80496d8:	c7 40 0c 74 20 73 74 	movl   $0x74732074,0xc(%eax)
 80496df:	c7 40 10 72 69 6e 67 	movl   $0x676e6972,0x10(%eax)
 80496e6:	c7 40 14 20 74 6f 6f 	movl   $0x6f6f7420,0x14(%eax)
 80496ed:	c7 40 18 20 6c 61 72 	movl   $0x72616c20,0x18(%eax)
 80496f4:	c7 40 1c 67 65 2e 20 	movl   $0x202e6567,0x1c(%eax)
 80496fb:	c7 40 20 49 6e 63 72 	movl   $0x72636e49,0x20(%eax)
 8049702:	c7 40 24 65 61 73 65 	movl   $0x65736165,0x24(%eax)
 8049709:	c7 40 28 20 53 55 42 	movl   $0x42555320,0x28(%eax)
 8049710:	c7 40 2c 4d 49 54 52 	movl   $0x5254494d,0x2c(%eax)
 8049717:	c7 40 30 5f 4d 41 58 	movl   $0x58414d5f,0x30(%eax)
 804971e:	c7 40 34 42 55 46 00 	movl   $0x465542,0x34(%eax)
 8049725:	83 ec 0c             	sub    $0xc,%esp
 8049728:	ff 74 24 10          	pushl  0x10(%esp)
 804972c:	e8 6f f1 ff ff       	call   80488a0 <close@plt>
 8049731:	83 c4 10             	add    $0x10,%esp
 8049734:	b8 ff ff ff ff       	mov    $0xffffffff,%eax
 8049739:	e9 2a 04 00 00       	jmp    8049b68 <submitr+0x70d>
 804973e:	8d 94 24 4c 40 00 00 	lea    0x404c(%esp),%edx
 8049745:	b9 00 08 00 00       	mov    $0x800,%ecx
 804974a:	b8 00 00 00 00       	mov    $0x0,%eax
 804974f:	89 d7                	mov    %edx,%edi
 8049751:	f3 ab                	rep stos %eax,%es:(%edi)
 8049753:	b9 ff ff ff ff       	mov    $0xffffffff,%ecx
 8049758:	89 df                	mov    %ebx,%edi
 804975a:	f2 ae                	repnz scas %es:(%edi),%al
 804975c:	f7 d1                	not    %ecx
 804975e:	89 ce                	mov    %ecx,%esi
 8049760:	83 ee 01             	sub    $0x1,%esi
 8049763:	0f 84 5c 04 00 00    	je     8049bc5 <submitr+0x76a>
 8049769:	89 d5                	mov    %edx,%ebp
 804976b:	bf d9 ff 00 00       	mov    $0xffd9,%edi
 8049770:	0f b6 13             	movzbl (%ebx),%edx
 8049773:	8d 4a d6             	lea    -0x2a(%edx),%ecx
 8049776:	b8 01 00 00 00       	mov    $0x1,%eax
 804977b:	80 f9 0f             	cmp    $0xf,%cl
 804977e:	77 0a                	ja     804978a <submitr+0x32f>
 8049780:	89 f8                	mov    %edi,%eax
 8049782:	d3 e8                	shr    %cl,%eax
 8049784:	83 f0 01             	xor    $0x1,%eax
 8049787:	83 e0 01             	and    $0x1,%eax
 804978a:	80 fa 5f             	cmp    $0x5f,%dl
 804978d:	0f 94 c1             	sete   %cl
 8049790:	38 c1                	cmp    %al,%cl
 8049792:	73 0c                	jae    80497a0 <submitr+0x345>
 8049794:	89 d0                	mov    %edx,%eax
 8049796:	83 e0 df             	and    $0xffffffdf,%eax
 8049799:	83 e8 41             	sub    $0x41,%eax
 804979c:	3c 19                	cmp    $0x19,%al
 804979e:	77 08                	ja     80497a8 <submitr+0x34d>
 80497a0:	88 55 00             	mov    %dl,0x0(%ebp)
 80497a3:	8d 6d 01             	lea    0x1(%ebp),%ebp
 80497a6:	eb 62                	jmp    804980a <submitr+0x3af>
 80497a8:	80 fa 20             	cmp    $0x20,%dl
 80497ab:	75 09                	jne    80497b6 <submitr+0x35b>
 80497ad:	c6 45 00 2b          	movb   $0x2b,0x0(%ebp)
 80497b1:	8d 6d 01             	lea    0x1(%ebp),%ebp
 80497b4:	eb 54                	jmp    804980a <submitr+0x3af>
 80497b6:	8d 42 e0             	lea    -0x20(%edx),%eax
 80497b9:	3c 5f                	cmp    $0x5f,%al
 80497bb:	76 09                	jbe    80497c6 <submitr+0x36b>
 80497bd:	80 fa 09             	cmp    $0x9,%dl
 80497c0:	0f 85 bb 03 00 00    	jne    8049b81 <submitr+0x726>
 80497c6:	83 ec 0c             	sub    $0xc,%esp
 80497c9:	0f b6 d2             	movzbl %dl,%edx
 80497cc:	52                   	push   %edx
 80497cd:	68 24 a4 04 08       	push   $0x804a424
 80497d2:	6a 08                	push   $0x8
 80497d4:	6a 01                	push   $0x1
 80497d6:	8d 84 24 68 80 00 00 	lea    0x8068(%esp),%eax
 80497dd:	50                   	push   %eax
 80497de:	e8 dd f0 ff ff       	call   80488c0 <__sprintf_chk@plt>
 80497e3:	0f b6 84 24 6c 80 00 	movzbl 0x806c(%esp),%eax
 80497ea:	00 
 80497eb:	88 45 00             	mov    %al,0x0(%ebp)
 80497ee:	0f b6 84 24 6d 80 00 	movzbl 0x806d(%esp),%eax
 80497f5:	00 
 80497f6:	88 45 01             	mov    %al,0x1(%ebp)
 80497f9:	0f b6 84 24 6e 80 00 	movzbl 0x806e(%esp),%eax
 8049800:	00 
 8049801:	88 45 02             	mov    %al,0x2(%ebp)
 8049804:	83 c4 20             	add    $0x20,%esp
 8049807:	8d 6d 03             	lea    0x3(%ebp),%ebp
 804980a:	83 c3 01             	add    $0x1,%ebx
 804980d:	83 ee 01             	sub    $0x1,%esi
 8049810:	0f 85 5a ff ff ff    	jne    8049770 <submitr+0x315>
 8049816:	e9 aa 03 00 00       	jmp    8049bc5 <submitr+0x76a>
 804981b:	83 ec 04             	sub    $0x4,%esp
 804981e:	53                   	push   %ebx
 804981f:	56                   	push   %esi
 8049820:	55                   	push   %ebp
 8049821:	e8 da ef ff ff       	call   8048800 <write@plt>
 8049826:	83 c4 10             	add    $0x10,%esp
 8049829:	85 c0                	test   %eax,%eax
 804982b:	7f 0f                	jg     804983c <submitr+0x3e1>
 804982d:	e8 fe ef ff ff       	call   8048830 <__errno_location@plt>
 8049832:	83 38 04             	cmpl   $0x4,(%eax)
 8049835:	75 0f                	jne    8049846 <submitr+0x3eb>
 8049837:	b8 00 00 00 00       	mov    $0x0,%eax
 804983c:	01 c6                	add    %eax,%esi
 804983e:	29 c3                	sub    %eax,%ebx
 8049840:	75 d9                	jne    804981b <submitr+0x3c0>
 8049842:	85 ff                	test   %edi,%edi
 8049844:	79 69                	jns    80498af <submitr+0x454>
 8049846:	8b 44 24 14          	mov    0x14(%esp),%eax
 804984a:	c7 00 45 72 72 6f    	movl   $0x6f727245,(%eax)
 8049850:	c7 40 04 72 3a 20 43 	movl   $0x43203a72,0x4(%eax)
 8049857:	c7 40 08 6c 69 65 6e 	movl   $0x6e65696c,0x8(%eax)
 804985e:	c7 40 0c 74 20 75 6e 	movl   $0x6e752074,0xc(%eax)
 8049865:	c7 40 10 61 62 6c 65 	movl   $0x656c6261,0x10(%eax)
 804986c:	c7 40 14 20 74 6f 20 	movl   $0x206f7420,0x14(%eax)
 8049873:	c7 40 18 77 72 69 74 	movl   $0x74697277,0x18(%eax)
 804987a:	c7 40 1c 65 20 74 6f 	movl   $0x6f742065,0x1c(%eax)
 8049881:	c7 40 20 20 74 68 65 	movl   $0x65687420,0x20(%eax)
 8049888:	c7 40 24 20 73 65 72 	movl   $0x72657320,0x24(%eax)
 804988f:	c7 40 28 76 65 72 00 	movl   $0x726576,0x28(%eax)
 8049896:	83 ec 0c             	sub    $0xc,%esp
 8049899:	ff 74 24 10          	pushl  0x10(%esp)
 804989d:	e8 fe ef ff ff       	call   80488a0 <close@plt>
 80498a2:	83 c4 10             	add    $0x10,%esp
 80498a5:	b8 ff ff ff ff       	mov    $0xffffffff,%eax
 80498aa:	e9 b9 02 00 00       	jmp    8049b68 <submitr+0x70d>
 80498af:	8b 44 24 04          	mov    0x4(%esp),%eax
 80498b3:	89 44 24 40          	mov    %eax,0x40(%esp)
 80498b7:	c7 44 24 44 00 00 00 	movl   $0x0,0x44(%esp)
 80498be:	00 
 80498bf:	8d 44 24 4c          	lea    0x4c(%esp),%eax
 80498c3:	89 44 24 48          	mov    %eax,0x48(%esp)
 80498c7:	b9 00 20 00 00       	mov    $0x2000,%ecx
 80498cc:	8d 94 24 4c 20 00 00 	lea    0x204c(%esp),%edx
 80498d3:	8d 44 24 40          	lea    0x40(%esp),%eax
 80498d7:	e8 ab fa ff ff       	call   8049387 <rio_readlineb>
 80498dc:	85 c0                	test   %eax,%eax
 80498de:	7f 7d                	jg     804995d <submitr+0x502>
 80498e0:	8b 44 24 14          	mov    0x14(%esp),%eax
 80498e4:	c7 00 45 72 72 6f    	movl   $0x6f727245,(%eax)
 80498ea:	c7 40 04 72 3a 20 43 	movl   $0x43203a72,0x4(%eax)
 80498f1:	c7 40 08 6c 69 65 6e 	movl   $0x6e65696c,0x8(%eax)
 80498f8:	c7 40 0c 74 20 75 6e 	movl   $0x6e752074,0xc(%eax)
 80498ff:	c7 40 10 61 62 6c 65 	movl   $0x656c6261,0x10(%eax)
 8049906:	c7 40 14 20 74 6f 20 	movl   $0x206f7420,0x14(%eax)
 804990d:	c7 40 18 72 65 61 64 	movl   $0x64616572,0x18(%eax)
 8049914:	c7 40 1c 20 66 69 72 	movl   $0x72696620,0x1c(%eax)
 804991b:	c7 40 20 73 74 20 68 	movl   $0x68207473,0x20(%eax)
 8049922:	c7 40 24 65 61 64 65 	movl   $0x65646165,0x24(%eax)
 8049929:	c7 40 28 72 20 66 72 	movl   $0x72662072,0x28(%eax)
 8049930:	c7 40 2c 6f 6d 20 73 	movl   $0x73206d6f,0x2c(%eax)
 8049937:	c7 40 30 65 72 76 65 	movl   $0x65767265,0x30(%eax)
 804993e:	66 c7 40 34 72 00    	movw   $0x72,0x34(%eax)
 8049944:	83 ec 0c             	sub    $0xc,%esp
 8049947:	ff 74 24 10          	pushl  0x10(%esp)
 804994b:	e8 50 ef ff ff       	call   80488a0 <close@plt>
 8049950:	83 c4 10             	add    $0x10,%esp
 8049953:	b8 ff ff ff ff       	mov    $0xffffffff,%eax
 8049958:	e9 0b 02 00 00       	jmp    8049b68 <submitr+0x70d>
 804995d:	83 ec 0c             	sub    $0xc,%esp
 8049960:	8d 84 24 58 80 00 00 	lea    0x8058(%esp),%eax
 8049967:	50                   	push   %eax
 8049968:	8d 44 24 3c          	lea    0x3c(%esp),%eax
 804996c:	50                   	push   %eax
 804996d:	8d 84 24 60 60 00 00 	lea    0x6060(%esp),%eax
 8049974:	50                   	push   %eax
 8049975:	68 2b a4 04 08       	push   $0x804a42b
 804997a:	8d 84 24 68 20 00 00 	lea    0x2068(%esp),%eax
 8049981:	50                   	push   %eax
 8049982:	e8 89 ee ff ff       	call   8048810 <__isoc99_sscanf@plt>
 8049987:	8b 44 24 4c          	mov    0x4c(%esp),%eax
 804998b:	83 c4 20             	add    $0x20,%esp
 804998e:	3d c8 00 00 00       	cmp    $0xc8,%eax
 8049993:	0f 84 c4 00 00 00    	je     8049a5d <submitr+0x602>
 8049999:	83 ec 08             	sub    $0x8,%esp
 804999c:	8d 94 24 54 80 00 00 	lea    0x8054(%esp),%edx
 80499a3:	52                   	push   %edx
 80499a4:	50                   	push   %eax
 80499a5:	68 30 a3 04 08       	push   $0x804a330
 80499aa:	6a ff                	push   $0xffffffff
 80499ac:	6a 01                	push   $0x1
 80499ae:	ff 74 24 30          	pushl  0x30(%esp)
 80499b2:	e8 09 ef ff ff       	call   80488c0 <__sprintf_chk@plt>
 80499b7:	83 c4 14             	add    $0x14,%esp
 80499ba:	ff 74 24 10          	pushl  0x10(%esp)
 80499be:	e8 dd ee ff ff       	call   80488a0 <close@plt>
 80499c3:	83 c4 10             	add    $0x10,%esp
 80499c6:	b8 ff ff ff ff       	mov    $0xffffffff,%eax
 80499cb:	e9 98 01 00 00       	jmp    8049b68 <submitr+0x70d>
 80499d0:	b9 00 20 00 00       	mov    $0x2000,%ecx
 80499d5:	8d 94 24 4c 20 00 00 	lea    0x204c(%esp),%edx
 80499dc:	8d 44 24 40          	lea    0x40(%esp),%eax
 80499e0:	e8 a2 f9 ff ff       	call   8049387 <rio_readlineb>
 80499e5:	85 c0                	test   %eax,%eax
 80499e7:	7f 74                	jg     8049a5d <submitr+0x602>
 80499e9:	8b 44 24 14          	mov    0x14(%esp),%eax
 80499ed:	c7 00 45 72 72 6f    	movl   $0x6f727245,(%eax)
 80499f3:	c7 40 04 72 3a 20 43 	movl   $0x43203a72,0x4(%eax)
 80499fa:	c7 40 08 6c 69 65 6e 	movl   $0x6e65696c,0x8(%eax)
 8049a01:	c7 40 0c 74 20 75 6e 	movl   $0x6e752074,0xc(%eax)
 8049a08:	c7 40 10 61 62 6c 65 	movl   $0x656c6261,0x10(%eax)
 8049a0f:	c7 40 14 20 74 6f 20 	movl   $0x206f7420,0x14(%eax)
 8049a16:	c7 40 18 72 65 61 64 	movl   $0x64616572,0x18(%eax)
 8049a1d:	c7 40 1c 20 68 65 61 	movl   $0x61656820,0x1c(%eax)
 8049a24:	c7 40 20 64 65 72 73 	movl   $0x73726564,0x20(%eax)
 8049a2b:	c7 40 24 20 66 72 6f 	movl   $0x6f726620,0x24(%eax)
 8049a32:	c7 40 28 6d 20 73 65 	movl   $0x6573206d,0x28(%eax)
 8049a39:	c7 40 2c 72 76 65 72 	movl   $0x72657672,0x2c(%eax)
 8049a40:	c6 40 30 00          	movb   $0x0,0x30(%eax)
 8049a44:	83 ec 0c             	sub    $0xc,%esp
 8049a47:	ff 74 24 10          	pushl  0x10(%esp)
 8049a4b:	e8 50 ee ff ff       	call   80488a0 <close@plt>
 8049a50:	83 c4 10             	add    $0x10,%esp
 8049a53:	b8 ff ff ff ff       	mov    $0xffffffff,%eax
 8049a58:	e9 0b 01 00 00       	jmp    8049b68 <submitr+0x70d>
 8049a5d:	80 bc 24 4c 20 00 00 	cmpb   $0xd,0x204c(%esp)
 8049a64:	0d 
 8049a65:	0f 85 65 ff ff ff    	jne    80499d0 <submitr+0x575>
 8049a6b:	80 bc 24 4d 20 00 00 	cmpb   $0xa,0x204d(%esp)
 8049a72:	0a 
 8049a73:	0f 85 57 ff ff ff    	jne    80499d0 <submitr+0x575>
 8049a79:	80 bc 24 4e 20 00 00 	cmpb   $0x0,0x204e(%esp)
 8049a80:	00 
 8049a81:	0f 85 49 ff ff ff    	jne    80499d0 <submitr+0x575>
 8049a87:	b9 00 20 00 00       	mov    $0x2000,%ecx
 8049a8c:	8d 94 24 4c 20 00 00 	lea    0x204c(%esp),%edx
 8049a93:	8d 44 24 40          	lea    0x40(%esp),%eax
 8049a97:	e8 eb f8 ff ff       	call   8049387 <rio_readlineb>
 8049a9c:	85 c0                	test   %eax,%eax
 8049a9e:	7f 7b                	jg     8049b1b <submitr+0x6c0>
 8049aa0:	8b 44 24 14          	mov    0x14(%esp),%eax
 8049aa4:	c7 00 45 72 72 6f    	movl   $0x6f727245,(%eax)
 8049aaa:	c7 40 04 72 3a 20 43 	movl   $0x43203a72,0x4(%eax)
 8049ab1:	c7 40 08 6c 69 65 6e 	movl   $0x6e65696c,0x8(%eax)
 8049ab8:	c7 40 0c 74 20 75 6e 	movl   $0x6e752074,0xc(%eax)
 8049abf:	c7 40 10 61 62 6c 65 	movl   $0x656c6261,0x10(%eax)
 8049ac6:	c7 40 14 20 74 6f 20 	movl   $0x206f7420,0x14(%eax)
 8049acd:	c7 40 18 72 65 61 64 	movl   $0x64616572,0x18(%eax)
 8049ad4:	c7 40 1c 20 73 74 61 	movl   $0x61747320,0x1c(%eax)
 8049adb:	c7 40 20 74 75 73 20 	movl   $0x20737574,0x20(%eax)
 8049ae2:	c7 40 24 6d 65 73 73 	movl   $0x7373656d,0x24(%eax)
 8049ae9:	c7 40 28 61 67 65 20 	movl   $0x20656761,0x28(%eax)
 8049af0:	c7 40 2c 66 72 6f 6d 	movl   $0x6d6f7266,0x2c(%eax)
 8049af7:	c7 40 30 20 73 65 72 	movl   $0x72657320,0x30(%eax)
 8049afe:	c7 40 34 76 65 72 00 	movl   $0x726576,0x34(%eax)
 8049b05:	83 ec 0c             	sub    $0xc,%esp
 8049b08:	ff 74 24 10          	pushl  0x10(%esp)
 8049b0c:	e8 8f ed ff ff       	call   80488a0 <close@plt>
 8049b11:	83 c4 10             	add    $0x10,%esp
 8049b14:	b8 ff ff ff ff       	mov    $0xffffffff,%eax
 8049b19:	eb 4d                	jmp    8049b68 <submitr+0x70d>
 8049b1b:	83 ec 08             	sub    $0x8,%esp
 8049b1e:	8d 84 24 54 20 00 00 	lea    0x2054(%esp),%eax
 8049b25:	50                   	push   %eax
 8049b26:	8b 7c 24 20          	mov    0x20(%esp),%edi
 8049b2a:	57                   	push   %edi
 8049b2b:	e8 70 ec ff ff       	call   80487a0 <strcpy@plt>
 8049b30:	83 c4 04             	add    $0x4,%esp
 8049b33:	ff 74 24 10          	pushl  0x10(%esp)
 8049b37:	e8 64 ed ff ff       	call   80488a0 <close@plt>
 8049b3c:	0f b6 17             	movzbl (%edi),%edx
 8049b3f:	b8 4f 00 00 00       	mov    $0x4f,%eax
 8049b44:	83 c4 10             	add    $0x10,%esp
 8049b47:	29 d0                	sub    %edx,%eax
 8049b49:	75 13                	jne    8049b5e <submitr+0x703>
 8049b4b:	0f b6 57 01          	movzbl 0x1(%edi),%edx
 8049b4f:	b8 4b 00 00 00       	mov    $0x4b,%eax
 8049b54:	29 d0                	sub    %edx,%eax
 8049b56:	75 06                	jne    8049b5e <submitr+0x703>
 8049b58:	0f b6 47 02          	movzbl 0x2(%edi),%eax
 8049b5c:	f7 d8                	neg    %eax
 8049b5e:	85 c0                	test   %eax,%eax
 8049b60:	0f 95 c0             	setne  %al
 8049b63:	0f b6 c0             	movzbl %al,%eax
 8049b66:	f7 d8                	neg    %eax
 8049b68:	8b bc 24 4c a0 00 00 	mov    0xa04c(%esp),%edi
 8049b6f:	65 33 3d 14 00 00 00 	xor    %gs:0x14,%edi
 8049b76:	0f 84 b0 00 00 00    	je     8049c2c <submitr+0x7d1>
 8049b7c:	e9 a6 00 00 00       	jmp    8049c27 <submitr+0x7cc>
 8049b81:	a1 60 a3 04 08       	mov    0x804a360,%eax
 8049b86:	8b 7c 24 14          	mov    0x14(%esp),%edi
 8049b8a:	89 07                	mov    %eax,(%edi)
 8049b8c:	a1 9f a3 04 08       	mov    0x804a39f,%eax
 8049b91:	89 47 3f             	mov    %eax,0x3f(%edi)
 8049b94:	89 f8                	mov    %edi,%eax
 8049b96:	83 c7 04             	add    $0x4,%edi
 8049b99:	83 e7 fc             	and    $0xfffffffc,%edi
 8049b9c:	29 f8                	sub    %edi,%eax
 8049b9e:	be 60 a3 04 08       	mov    $0x804a360,%esi
 8049ba3:	29 c6                	sub    %eax,%esi
 8049ba5:	83 c0 43             	add    $0x43,%eax
 8049ba8:	c1 e8 02             	shr    $0x2,%eax
 8049bab:	89 c1                	mov    %eax,%ecx
 8049bad:	f3 a5                	rep movsl %ds:(%esi),%es:(%edi)
 8049baf:	83 ec 0c             	sub    $0xc,%esp
 8049bb2:	ff 74 24 10          	pushl  0x10(%esp)
 8049bb6:	e8 e5 ec ff ff       	call   80488a0 <close@plt>
 8049bbb:	83 c4 10             	add    $0x10,%esp
 8049bbe:	b8 ff ff ff ff       	mov    $0xffffffff,%eax
 8049bc3:	eb a3                	jmp    8049b68 <submitr+0x70d>
 8049bc5:	83 ec 0c             	sub    $0xc,%esp
 8049bc8:	8d 84 24 58 40 00 00 	lea    0x4058(%esp),%eax
 8049bcf:	50                   	push   %eax
 8049bd0:	ff 74 24 20          	pushl  0x20(%esp)
 8049bd4:	ff 74 24 2c          	pushl  0x2c(%esp)
 8049bd8:	ff 74 24 24          	pushl  0x24(%esp)
 8049bdc:	ff 74 24 24          	pushl  0x24(%esp)
 8049be0:	68 a4 a3 04 08       	push   $0x804a3a4
 8049be5:	68 00 20 00 00       	push   $0x2000
 8049bea:	6a 01                	push   $0x1
 8049bec:	8d bc 24 78 20 00 00 	lea    0x2078(%esp),%edi
 8049bf3:	57                   	push   %edi
 8049bf4:	e8 c7 ec ff ff       	call   80488c0 <__sprintf_chk@plt>
 8049bf9:	b8 00 00 00 00       	mov    $0x0,%eax
 8049bfe:	b9 ff ff ff ff       	mov    $0xffffffff,%ecx
 8049c03:	f2 ae                	repnz scas %es:(%edi),%al
 8049c05:	f7 d1                	not    %ecx
 8049c07:	8d 79 ff             	lea    -0x1(%ecx),%edi
 8049c0a:	83 c4 30             	add    $0x30,%esp
 8049c0d:	89 fb                	mov    %edi,%ebx
 8049c0f:	8d b4 24 4c 20 00 00 	lea    0x204c(%esp),%esi
 8049c16:	8b 6c 24 04          	mov    0x4(%esp),%ebp
 8049c1a:	85 ff                	test   %edi,%edi
 8049c1c:	0f 85 f9 fb ff ff    	jne    804981b <submitr+0x3c0>
 8049c22:	e9 88 fc ff ff       	jmp    80498af <submitr+0x454>
 8049c27:	e8 64 eb ff ff       	call   8048790 <__stack_chk_fail@plt>
 8049c2c:	81 c4 5c a0 00 00    	add    $0xa05c,%esp
 8049c32:	5b                   	pop    %ebx
 8049c33:	5e                   	pop    %esi
 8049c34:	5f                   	pop    %edi
 8049c35:	5d                   	pop    %ebp
 8049c36:	c3                   	ret    

08049c37 <init_timeout>:
 8049c37:	53                   	push   %ebx
 8049c38:	83 ec 08             	sub    $0x8,%esp
 8049c3b:	8b 5c 24 10          	mov    0x10(%esp),%ebx
 8049c3f:	85 db                	test   %ebx,%ebx
 8049c41:	74 24                	je     8049c67 <init_timeout+0x30>
 8049c43:	83 ec 08             	sub    $0x8,%esp
 8049c46:	68 64 93 04 08       	push   $0x8049364
 8049c4b:	6a 0e                	push   $0xe
 8049c4d:	e8 0e eb ff ff       	call   8048760 <signal@plt>
 8049c52:	85 db                	test   %ebx,%ebx
 8049c54:	b8 00 00 00 00       	mov    $0x0,%eax
 8049c59:	0f 48 d8             	cmovs  %eax,%ebx
 8049c5c:	89 1c 24             	mov    %ebx,(%esp)
 8049c5f:	e8 1c eb ff ff       	call   8048780 <alarm@plt>
 8049c64:	83 c4 10             	add    $0x10,%esp
 8049c67:	83 c4 08             	add    $0x8,%esp
 8049c6a:	5b                   	pop    %ebx
 8049c6b:	c3                   	ret    

08049c6c <init_driver>:
 8049c6c:	57                   	push   %edi
 8049c6d:	56                   	push   %esi
 8049c6e:	53                   	push   %ebx
 8049c6f:	83 ec 28             	sub    $0x28,%esp
 8049c72:	8b 74 24 38          	mov    0x38(%esp),%esi
 8049c76:	65 a1 14 00 00 00    	mov    %gs:0x14,%eax
 8049c7c:	89 44 24 24          	mov    %eax,0x24(%esp)
 8049c80:	31 c0                	xor    %eax,%eax
 8049c82:	6a 01                	push   $0x1
 8049c84:	6a 0d                	push   $0xd
 8049c86:	e8 d5 ea ff ff       	call   8048760 <signal@plt>
 8049c8b:	83 c4 08             	add    $0x8,%esp
 8049c8e:	6a 01                	push   $0x1
 8049c90:	6a 1d                	push   $0x1d
 8049c92:	e8 c9 ea ff ff       	call   8048760 <signal@plt>
 8049c97:	83 c4 08             	add    $0x8,%esp
 8049c9a:	6a 01                	push   $0x1
 8049c9c:	6a 1d                	push   $0x1d
 8049c9e:	e8 bd ea ff ff       	call   8048760 <signal@plt>
 8049ca3:	83 c4 0c             	add    $0xc,%esp
 8049ca6:	6a 00                	push   $0x0
 8049ca8:	6a 01                	push   $0x1
 8049caa:	6a 02                	push   $0x2
 8049cac:	e8 9f eb ff ff       	call   8048850 <socket@plt>
 8049cb1:	83 c4 10             	add    $0x10,%esp
 8049cb4:	85 c0                	test   %eax,%eax
 8049cb6:	79 4e                	jns    8049d06 <init_driver+0x9a>
 8049cb8:	c7 06 45 72 72 6f    	movl   $0x6f727245,(%esi)
 8049cbe:	c7 46 04 72 3a 20 43 	movl   $0x43203a72,0x4(%esi)
 8049cc5:	c7 46 08 6c 69 65 6e 	movl   $0x6e65696c,0x8(%esi)
 8049ccc:	c7 46 0c 74 20 75 6e 	movl   $0x6e752074,0xc(%esi)
 8049cd3:	c7 46 10 61 62 6c 65 	movl   $0x656c6261,0x10(%esi)
 8049cda:	c7 46 14 20 74 6f 20 	movl   $0x206f7420,0x14(%esi)
 8049ce1:	c7 46 18 63 72 65 61 	movl   $0x61657263,0x18(%esi)
 8049ce8:	c7 46 1c 74 65 20 73 	movl   $0x73206574,0x1c(%esi)
 8049cef:	c7 46 20 6f 63 6b 65 	movl   $0x656b636f,0x20(%esi)
 8049cf6:	66 c7 46 24 74 00    	movw   $0x74,0x24(%esi)
 8049cfc:	b8 ff ff ff ff       	mov    $0xffffffff,%eax
 8049d01:	e9 1f 01 00 00       	jmp    8049e25 <init_driver+0x1b9>
 8049d06:	89 c3                	mov    %eax,%ebx
 8049d08:	83 ec 0c             	sub    $0xc,%esp
 8049d0b:	68 fd a2 04 08       	push   $0x804a2fd
 8049d10:	e8 5b eb ff ff       	call   8048870 <gethostbyname@plt>
 8049d15:	83 c4 10             	add    $0x10,%esp
 8049d18:	85 c0                	test   %eax,%eax
 8049d1a:	75 6c                	jne    8049d88 <init_driver+0x11c>
 8049d1c:	c7 06 45 72 72 6f    	movl   $0x6f727245,(%esi)
 8049d22:	c7 46 04 72 3a 20 44 	movl   $0x44203a72,0x4(%esi)
 8049d29:	c7 46 08 4e 53 20 69 	movl   $0x6920534e,0x8(%esi)
 8049d30:	c7 46 0c 73 20 75 6e 	movl   $0x6e752073,0xc(%esi)
 8049d37:	c7 46 10 61 62 6c 65 	movl   $0x656c6261,0x10(%esi)
 8049d3e:	c7 46 14 20 74 6f 20 	movl   $0x206f7420,0x14(%esi)
 8049d45:	c7 46 18 72 65 73 6f 	movl   $0x6f736572,0x18(%esi)
 8049d4c:	c7 46 1c 6c 76 65 20 	movl   $0x2065766c,0x1c(%esi)
 8049d53:	c7 46 20 73 65 72 76 	movl   $0x76726573,0x20(%esi)
 8049d5a:	c7 46 24 65 72 20 61 	movl   $0x61207265,0x24(%esi)
 8049d61:	c7 46 28 64 64 72 65 	movl   $0x65726464,0x28(%esi)
 8049d68:	66 c7 46 2c 73 73    	movw   $0x7373,0x2c(%esi)
 8049d6e:	c6 46 2e 00          	movb   $0x0,0x2e(%esi)
 8049d72:	83 ec 0c             	sub    $0xc,%esp
 8049d75:	53                   	push   %ebx
 8049d76:	e8 25 eb ff ff       	call   80488a0 <close@plt>
 8049d7b:	83 c4 10             	add    $0x10,%esp
 8049d7e:	b8 ff ff ff ff       	mov    $0xffffffff,%eax
 8049d83:	e9 9d 00 00 00       	jmp    8049e25 <init_driver+0x1b9>
 8049d88:	8d 7c 24 0c          	lea    0xc(%esp),%edi
 8049d8c:	c7 44 24 0c 00 00 00 	movl   $0x0,0xc(%esp)
 8049d93:	00 
 8049d94:	c7 44 24 10 00 00 00 	movl   $0x0,0x10(%esp)
 8049d9b:	00 
 8049d9c:	c7 44 24 14 00 00 00 	movl   $0x0,0x14(%esp)
 8049da3:	00 
 8049da4:	c7 44 24 18 00 00 00 	movl   $0x0,0x18(%esp)
 8049dab:	00 
 8049dac:	66 c7 44 24 0c 02 00 	movw   $0x2,0xc(%esp)
 8049db3:	6a 0c                	push   $0xc
 8049db5:	ff 70 0c             	pushl  0xc(%eax)
 8049db8:	8b 40 10             	mov    0x10(%eax),%eax
 8049dbb:	ff 30                	pushl  (%eax)
 8049dbd:	8d 44 24 1c          	lea    0x1c(%esp),%eax
 8049dc1:	50                   	push   %eax
 8049dc2:	e8 09 ea ff ff       	call   80487d0 <__memmove_chk@plt>
 8049dc7:	66 c7 44 24 1e 3b 6e 	movw   $0x6e3b,0x1e(%esp)
 8049dce:	83 c4 0c             	add    $0xc,%esp
 8049dd1:	6a 10                	push   $0x10
 8049dd3:	57                   	push   %edi
 8049dd4:	53                   	push   %ebx
 8049dd5:	e8 b6 ea ff ff       	call   8048890 <connect@plt>
 8049dda:	83 c4 10             	add    $0x10,%esp
 8049ddd:	85 c0                	test   %eax,%eax
 8049ddf:	79 2a                	jns    8049e0b <init_driver+0x19f>
 8049de1:	83 ec 0c             	sub    $0xc,%esp
 8049de4:	68 fd a2 04 08       	push   $0x804a2fd
 8049de9:	68 fc a3 04 08       	push   $0x804a3fc
 8049dee:	6a ff                	push   $0xffffffff
 8049df0:	6a 01                	push   $0x1
 8049df2:	56                   	push   %esi
 8049df3:	e8 c8 ea ff ff       	call   80488c0 <__sprintf_chk@plt>
 8049df8:	83 c4 14             	add    $0x14,%esp
 8049dfb:	53                   	push   %ebx
 8049dfc:	e8 9f ea ff ff       	call   80488a0 <close@plt>
 8049e01:	83 c4 10             	add    $0x10,%esp
 8049e04:	b8 ff ff ff ff       	mov    $0xffffffff,%eax
 8049e09:	eb 1a                	jmp    8049e25 <init_driver+0x1b9>
 8049e0b:	83 ec 0c             	sub    $0xc,%esp
 8049e0e:	53                   	push   %ebx
 8049e0f:	e8 8c ea ff ff       	call   80488a0 <close@plt>
 8049e14:	66 c7 06 4f 4b       	movw   $0x4b4f,(%esi)
 8049e19:	c6 46 02 00          	movb   $0x0,0x2(%esi)
 8049e1d:	83 c4 10             	add    $0x10,%esp
 8049e20:	b8 00 00 00 00       	mov    $0x0,%eax
 8049e25:	8b 54 24 1c          	mov    0x1c(%esp),%edx
 8049e29:	65 33 15 14 00 00 00 	xor    %gs:0x14,%edx
 8049e30:	74 05                	je     8049e37 <init_driver+0x1cb>
 8049e32:	e8 59 e9 ff ff       	call   8048790 <__stack_chk_fail@plt>
 8049e37:	83 c4 20             	add    $0x20,%esp
 8049e3a:	5b                   	pop    %ebx
 8049e3b:	5e                   	pop    %esi
 8049e3c:	5f                   	pop    %edi
 8049e3d:	c3                   	ret    

08049e3e <driver_post>:
 8049e3e:	53                   	push   %ebx
 8049e3f:	83 ec 08             	sub    $0x8,%esp
 8049e42:	8b 44 24 10          	mov    0x10(%esp),%eax
 8049e46:	8b 5c 24 20          	mov    0x20(%esp),%ebx
 8049e4a:	83 7c 24 1c 00       	cmpl   $0x0,0x1c(%esp)
 8049e4f:	74 26                	je     8049e77 <driver_post+0x39>
 8049e51:	83 ec 04             	sub    $0x4,%esp
 8049e54:	ff 74 24 1c          	pushl  0x1c(%esp)
 8049e58:	68 3c a4 04 08       	push   $0x804a43c
 8049e5d:	6a 01                	push   $0x1
 8049e5f:	e8 dc e9 ff ff       	call   8048840 <__printf_chk@plt>
 8049e64:	66 c7 03 4f 4b       	movw   $0x4b4f,(%ebx)
 8049e69:	c6 43 02 00          	movb   $0x0,0x2(%ebx)
 8049e6d:	83 c4 10             	add    $0x10,%esp
 8049e70:	b8 00 00 00 00       	mov    $0x0,%eax
 8049e75:	eb 3f                	jmp    8049eb6 <driver_post+0x78>
 8049e77:	85 c0                	test   %eax,%eax
 8049e79:	74 2d                	je     8049ea8 <driver_post+0x6a>
 8049e7b:	80 38 00             	cmpb   $0x0,(%eax)
 8049e7e:	74 28                	je     8049ea8 <driver_post+0x6a>
 8049e80:	53                   	push   %ebx
 8049e81:	ff 74 24 1c          	pushl  0x1c(%esp)
 8049e85:	68 53 a4 04 08       	push   $0x804a453
 8049e8a:	ff 74 24 20          	pushl  0x20(%esp)
 8049e8e:	50                   	push   %eax
 8049e8f:	68 57 a4 04 08       	push   $0x804a457
 8049e94:	68 6e 3b 00 00       	push   $0x3b6e
 8049e99:	68 fd a2 04 08       	push   $0x804a2fd
 8049e9e:	e8 b8 f5 ff ff       	call   804945b <submitr>
 8049ea3:	83 c4 20             	add    $0x20,%esp
 8049ea6:	eb 0e                	jmp    8049eb6 <driver_post+0x78>
 8049ea8:	66 c7 03 4f 4b       	movw   $0x4b4f,(%ebx)
 8049ead:	c6 43 02 00          	movb   $0x0,0x2(%ebx)
 8049eb1:	b8 00 00 00 00       	mov    $0x0,%eax
 8049eb6:	83 c4 08             	add    $0x8,%esp
 8049eb9:	5b                   	pop    %ebx
 8049eba:	c3                   	ret    
 8049ebb:	66 90                	xchg   %ax,%ax
 8049ebd:	66 90                	xchg   %ax,%ax
 8049ebf:	90                   	nop

08049ec0 <__libc_csu_init>:
 8049ec0:	55                   	push   %ebp
 8049ec1:	57                   	push   %edi
 8049ec2:	56                   	push   %esi
 8049ec3:	53                   	push   %ebx
 8049ec4:	e8 47 ea ff ff       	call   8048910 <__x86.get_pc_thunk.bx>
 8049ec9:	81 c3 37 21 00 00    	add    $0x2137,%ebx
 8049ecf:	83 ec 0c             	sub    $0xc,%esp
 8049ed2:	8b 6c 24 20          	mov    0x20(%esp),%ebp
 8049ed6:	8d b3 0c ff ff ff    	lea    -0xf4(%ebx),%esi
 8049edc:	e8 13 e8 ff ff       	call   80486f4 <_init>
 8049ee1:	8d 83 08 ff ff ff    	lea    -0xf8(%ebx),%eax
 8049ee7:	29 c6                	sub    %eax,%esi
 8049ee9:	c1 fe 02             	sar    $0x2,%esi
 8049eec:	85 f6                	test   %esi,%esi
 8049eee:	74 25                	je     8049f15 <__libc_csu_init+0x55>
 8049ef0:	31 ff                	xor    %edi,%edi
 8049ef2:	8d b6 00 00 00 00    	lea    0x0(%esi),%esi
 8049ef8:	83 ec 04             	sub    $0x4,%esp
 8049efb:	ff 74 24 2c          	pushl  0x2c(%esp)
 8049eff:	ff 74 24 2c          	pushl  0x2c(%esp)
 8049f03:	55                   	push   %ebp
 8049f04:	ff 94 bb 08 ff ff ff 	call   *-0xf8(%ebx,%edi,4)
 8049f0b:	83 c7 01             	add    $0x1,%edi
 8049f0e:	83 c4 10             	add    $0x10,%esp
 8049f11:	39 f7                	cmp    %esi,%edi
 8049f13:	75 e3                	jne    8049ef8 <__libc_csu_init+0x38>
 8049f15:	83 c4 0c             	add    $0xc,%esp
 8049f18:	5b                   	pop    %ebx
 8049f19:	5e                   	pop    %esi
 8049f1a:	5f                   	pop    %edi
 8049f1b:	5d                   	pop    %ebp
 8049f1c:	c3                   	ret    
 8049f1d:	8d 76 00             	lea    0x0(%esi),%esi

08049f20 <__libc_csu_fini>:
 8049f20:	f3 c3                	repz ret 

Disassembly of section .fini:

08049f24 <_fini>:
 8049f24:	53                   	push   %ebx
 8049f25:	83 ec 08             	sub    $0x8,%esp
 8049f28:	e8 e3 e9 ff ff       	call   8048910 <__x86.get_pc_thunk.bx>
 8049f2d:	81 c3 d3 20 00 00    	add    $0x20d3,%ebx
 8049f33:	83 c4 08             	add    $0x8,%esp
 8049f36:	5b                   	pop    %ebx
 8049f37:	c3                   	ret    
